 node_expat

 Timestamp is 5a375ba2 (Mon Dec 18 14:09:38 2017)

 Preferred load address is 10000000

 Start         Length     Name                   Class
 0001:00000000 00000011H .text$di                CODE
 0001:00000020 000268deH .text$mn                CODE
 0001:000268fe 00000000H .text$x                 CODE
 0001:00026900 00000000H .text$yd                CODE
 0002:00000000 00000110H .idata$5                DATA
 0002:00000110 00000004H .CRT$XCA                DATA
 0002:00000114 0000000cH .CRT$XCU                DATA
 0002:00000120 00000004H .CRT$XCZ                DATA
 0002:00000124 00000004H .CRT$XIA                DATA
 0002:00000128 00000010H .CRT$XIC                DATA
 0002:00000138 00000004H .CRT$XIZ                DATA
 0002:0000013c 00000004H .CRT$XPA                DATA
 0002:00000140 00000008H .CRT$XPX                DATA
 0002:00000148 00000004H .CRT$XPXA               DATA
 0002:0000014c 00000004H .CRT$XPZ                DATA
 0002:00000150 00000004H .CRT$XTA                DATA
 0002:00000154 00000004H .CRT$XTZ                DATA
 0002:00000160 00008178H .rdata                  DATA
 0002:000082d8 0000007cH .rdata$debug            DATA
 0002:00008354 000000dcH .rdata$r                DATA
 0002:00008430 0000000cH .rdata$sxdata           DATA
 0002:0000843c 00000004H .rtc$IAA                DATA
 0002:00008440 00000004H .rtc$IZZ                DATA
 0002:00008444 00000004H .rtc$TAA                DATA
 0002:00008448 00000004H .rtc$TZZ                DATA
 0002:00008450 0000044cH .xdata$x                DATA
 0002:0000889c 00000020H .didat$2                DATA
 0002:000088bc 00000020H .didat$3                DATA
 0002:000088dc 000000e4H .didat$4                DATA
 0002:000089c0 00000dd0H .didat$6                DATA
 0002:00009790 000000e4H .didat$7                DATA
 0002:00009880 00000058H .edata                  DATA
 0002:000098d8 00000014H .idata$2                DATA
 0002:000098ec 00000014H .idata$3                DATA
 0002:00009900 00000110H .idata$4                DATA
 0002:00009a10 000004e4H .idata$6                DATA
 0003:00000000 00001250H .data                   DATA
 0003:00001250 00000050H .data$r                 DATA
 0003:000012a0 000000e4H .didat$5                DATA
 0003:000013a0 00001eccH .bss                    DATA
 0004:00000000 00000058H .rsrc$01                DATA
 0004:00000060 00000180H .rsrc$02                DATA

  Address         Publics by Value              Rva+Base       Lib:Object

 0000:00000000       ___guard_fids_table        00000000     <absolute>
 0000:00000000       ___guard_flags             00000000     <absolute>
 0000:00000000       ___guard_fids_count        00000000     <absolute>
 0000:00000000       __except_list              00000000     <absolute>
 0000:00000003       ___safe_se_handler_count   00000003     <absolute>
 0000:00000000       ___ImageBase               10000000     <linker-defined>
 0001:000000c0       ?NewInstance@Nan@@YA?AV?$MaybeLocal@VObject@v8@@@v8@@V?$Local@VObjectTemplate@v8@@@3@@Z 100010c0 f i node-expat.obj
 0001:00000140       ?convert@?$ToFactory@VUint32@v8@@@imp@Nan@@SA?AV?$MaybeLocal@VUint32@v8@@@v8@@V?$Local@VValue@v8@@@5@@Z 10001140 f i node-expat.obj
 0001:000001c0       ?convert@?$ToFactory@VInt32@v8@@@imp@Nan@@SA?AV?$MaybeLocal@VInt32@v8@@@v8@@V?$Local@VValue@v8@@@5@@Z 100011c0 f i node-expat.obj
 0001:00000240       ?New@?$Factory@VFunctionTemplate@v8@@@imp@Nan@@SA?AV?$Local@VFunctionTemplate@v8@@@v8@@P6AXABV?$FunctionCallbackInfo@VValue@v8@@@3@@ZV?$Local@VValue@v8@@@5@V?$Local@VSignature@v8@@@5@@Z 10001240 f i node-expat.obj
 0001:00000350       ?ThrowError@Nan@@YAXPBD@Z  10001350 f i node-expat.obj
 0001:000003d0       ?ThrowTypeError@Nan@@YAXPBD@Z 100013d0 f i node-expat.obj
 0001:00000450       ??0Utf8String@Nan@@QAE@V?$Local@VValue@v8@@@v8@@@Z 10001450 f i node-expat.obj
 0001:00000520       ?SetPrototypeMethod@Nan@@YAXV?$Local@VFunctionTemplate@v8@@@v8@@PBDP6AXABV?$FunctionCallbackInfo@VValue@v8@@@1@@Z@Z 10001520 f i node-expat.obj
 0001:000005d0       ?Wrap@ObjectWrap@Nan@@IAEXV?$Local@VObject@v8@@@v8@@@Z 100015d0 f i node-expat.obj
 0001:00000680       ?Ref@ObjectWrap@Nan@@MAEXXZ 10001680 f i node-expat.obj
 0001:000006b0       ?Unref@ObjectWrap@Nan@@MAEXXZ 100016b0 f i node-expat.obj
 0001:00000740       ?WeakCallback@ObjectWrap@Nan@@CAXABV?$WeakCallbackInfo@VObjectWrap@Nan@@@v8@@@Z 10001740 f i node-expat.obj
 0001:000007b0       ??_EObjectWrap@Nan@@UAEPAXI@Z 100017b0 f i * CIL library *:* CIL module *
 0001:000007b0       ??_GObjectWrap@Nan@@UAEPAXI@Z 100017b0 f i node-expat.obj
 0001:00000830       ?Initialize@Parser@@SAXV?$Local@VObject@v8@@@v8@@@Z 10001830 f i node-expat.obj
 0001:000009a0       ?New@Parser@@KAXABV?$FunctionCallbackInfo@VValue@v8@@@Nan@@@Z 100019a0 f i node-expat.obj
 0001:00000b20       ??1Parser@@MAE@XZ          10001b20 f i node-expat.obj
 0001:00000b90       ?attachHandlers@Parser@@IAEXXZ 10001b90 f i node-expat.obj
 0001:00000c30       ?Parse@Parser@@KAXABV?$FunctionCallbackInfo@VValue@v8@@@Nan@@@Z 10001c30 f i node-expat.obj
 0001:00000e60       ?parseString@Parser@@IAE_NAAVString@v8@@H@Z 10001e60 f i node-expat.obj
 0001:00000ef0       ?SetEncoding@Parser@@KAXABV?$FunctionCallbackInfo@VValue@v8@@@Nan@@@Z 10001ef0 f i node-expat.obj
 0001:00001070       ?setEncoding@Parser@@IAEHPAD@Z 10002070 f i node-expat.obj
 0001:000010e0       ?GetError@Parser@@KAXABV?$FunctionCallbackInfo@VValue@v8@@@Nan@@@Z 100020e0 f i node-expat.obj
 0001:00001210       ?Stop@Parser@@KAXABV?$FunctionCallbackInfo@VValue@v8@@@Nan@@@Z 10002210 f i node-expat.obj
 0001:000012e0       ?stop@Parser@@IAEHXZ       100022e0 f i node-expat.obj
 0001:00001360       ?Resume@Parser@@KAXABV?$FunctionCallbackInfo@VValue@v8@@@Nan@@@Z 10002360 f i node-expat.obj
 0001:00001430       ?Reset@Parser@@KAXABV?$FunctionCallbackInfo@VValue@v8@@@Nan@@@Z 10002430 f i node-expat.obj
 0001:000015f0       ?GetCurrentLineNumber@Parser@@KAXABV?$FunctionCallbackInfo@VValue@v8@@@Nan@@@Z 100025f0 f i node-expat.obj
 0001:00001720       ?GetCurrentColumnNumber@Parser@@KAXABV?$FunctionCallbackInfo@VValue@v8@@@Nan@@@Z 10002720 f i node-expat.obj
 0001:00001840       ?GetCurrentByteIndex@Parser@@KAXABV?$FunctionCallbackInfo@VValue@v8@@@Nan@@@Z 10002840 f i node-expat.obj
 0001:00001940       ?StartElement@Parser@@CAXPAXPBDPAPBD@Z 10002940 f i node-expat.obj
 0001:00001b00       ?EndElement@Parser@@CAXPAXPBD@Z 10002b00 f i node-expat.obj
 0001:00001ba0       ?StartCdata@Parser@@CAXPAX@Z 10002ba0 f i node-expat.obj
 0001:00001c10       ?EndCdata@Parser@@CAXPAX@Z 10002c10 f i node-expat.obj
 0001:00001c80       ?Text@Parser@@CAXPAXPBDH@Z 10002c80 f i node-expat.obj
 0001:00001d20       ?ProcessingInstruction@Parser@@CAXPAXPBD1@Z 10002d20 f i node-expat.obj
 0001:00001e10       ?Comment@Parser@@CAXPAXPBD@Z 10002e10 f i node-expat.obj
 0001:00001eb0       ?XmlDecl@Parser@@CAXPAXPBD1H@Z 10002eb0 f i node-expat.obj
 0001:00001fd0       ?EntityDecl@Parser@@CAXPAXPBDH1H1111@Z 10002fd0 f i node-expat.obj
 0001:000021f0       ?UnknownEncoding@Parser@@CAHPAXPBDPAUXML_Encoding@@@Z 100031f0 f i node-expat.obj
 0001:000022e0       ?SetUnknownEncoding@Parser@@CAXABV?$FunctionCallbackInfo@VValue@v8@@@Nan@@@Z 100032e0 f i node-expat.obj
 0001:000024a0       ?Emit@Parser@@AAEXHQAV?$Local@VValue@v8@@@v8@@@Z 100034a0 f i node-expat.obj
 0001:00002540       ??_EParser@@MAEPAXI@Z      10003540 f i * CIL library *:* CIL module *
 0001:00002540       ??_GParser@@MAEPAXI@Z      10003540 f i node-expat.obj
 0001:00002ed0       _XML_ParserReset           10003ed0 f   libexpat:xmlparse.obj
 0001:00002ff0       _XML_ParserFree            10003ff0 f   libexpat:xmlparse.obj
 0001:00003180       _XML_Parse                 10004180 f   libexpat:xmlparse.obj
 0001:000032f0       _XML_ParseBuffer           100042f0 f   libexpat:xmlparse.obj
 0001:00003410       _XML_GetBuffer             10004410 f   libexpat:xmlparse.obj
 0001:00003590       _XML_ResumeParser          10004590 f   libexpat:xmlparse.obj
 0001:0000a050       __matherr                  1000b050 f   LIBCMT:matherr.obj
 0001:0000d150       _align_limit_to_full_utf8_characters 1000e150 f   libexpat:xmltok.obj
 0001:000150c0       _XmlUtf8Encode             100160c0 f   libexpat:xmltok.obj
 0001:00015490       _XmlInitUnknownEncoding    10016490 f   libexpat:xmltok.obj
 0001:00015990       _XmlInitEncoding           10016990 f   libexpat:xmltok.obj
 0001:00015ab0       _XmlParseXmlDecl           10016ab0 f   libexpat:xmltok.obj
 0001:00015b30       _XmlInitEncodingNS         10016b30 f   libexpat:xmltok.obj
 0001:00015c50       _XmlParseXmlDeclNS         10016c50 f   libexpat:xmltok.obj
 0001:00015c90       _XmlInitUnknownEncodingNS  10016c90 f   libexpat:xmltok.obj
 0001:0001763e       __imp_load_?Length@Buffer@node@@YAIV?$Local@VObject@v8@@@v8@@@Z 1001863e f   node:node.exe
 0001:00017648       __tailMerge_node_exe       10018648 f i node:node.exe
 0001:00017659       __imp_load_?Data@Buffer@node@@YAPADV?$Local@VObject@v8@@@v8@@@Z 10018659 f   node:node.exe
 0001:00017663       __imp_load_?HasInstance@Buffer@node@@YA_NV?$Local@VObject@v8@@@v8@@@Z 10018663 f   node:node.exe
 0001:0001766d       __imp_load__node_module_register 1001866d f   node:node.exe
 0001:00017677       __imp_load_?New@Signature@v8@@SA?AV?$Local@VSignature@v8@@@2@PAVIsolate@2@V?$Local@VFunctionTemplate@v8@@@2@@Z 10018677 f   node:node.exe
 0001:00017681       __imp_load_?ToLocalEmpty@V8@v8@@CAXXZ 10018681 f   node:node.exe
 0001:0001768b       __imp_load_?ClearWeak@V8@v8@@CAPAXPAPAVObject@internal@2@@Z 1001868b f   node:node.exe
 0001:00017695       __imp_load_?MakeWeak@V8@v8@@CAXPAPAVObject@internal@2@PAXP6AXABV?$WeakCallbackInfo@X@2@@ZW4WeakCallbackType@2@@Z 10018695 f   node:node.exe
 0001:0001769f       __imp_load_?DisposeGlobal@V8@v8@@CAXPAPAVObject@internal@2@@Z 1001869f f   node:node.exe
 0001:000176a9       __imp_load_?GlobalizeReference@V8@v8@@CAPAPAVObject@internal@2@PAVIsolate@42@PAPAV342@@Z 100186a9 f   node:node.exe
 0001:000176b3       __imp_load_?Escape@EscapableHandleScope@v8@@AAEPAPAVObject@internal@2@PAPAV342@@Z 100186b3 f   node:node.exe
 0001:000176bd       __imp_load_??0EscapableHandleScope@v8@@QAE@PAVIsolate@1@@Z 100186bd f   node:node.exe
 0001:000176c7       __imp_load_?Int32Value@Value@v8@@QBEHXZ 100186c7 f   node:node.exe
 0001:000176d1       __imp_load_?ToInt32@Value@v8@@QBE?AV?$MaybeLocal@VInt32@v8@@@2@V?$Local@VContext@v8@@@2@@Z 100186d1 f   node:node.exe
 0001:000176db       __imp_load_?ToUint32@Value@v8@@QBE?AV?$MaybeLocal@VUint32@v8@@@2@V?$Local@VContext@v8@@@2@@Z 100186db f   node:node.exe
 0001:000176e5       __imp_load_?IsInt32@Value@v8@@QBE_NXZ 100186e5 f   node:node.exe
 0001:000176ef       __imp_load_?IsObject@Value@v8@@QBE_NXZ 100186ef f   node:node.exe
 0001:000176f9       __imp_load_?IsArray@Value@v8@@QBE_NXZ 100186f9 f   node:node.exe
 0001:00017703       __imp_load_?IsTrue@Value@v8@@QBE_NXZ 10018703 f   node:node.exe
 0001:0001770d       __imp_load_?SetClassName@FunctionTemplate@v8@@QAEXV?$Local@VString@v8@@@2@@Z 1001870d f   node:node.exe
 0001:00017717       __imp_load_?PrototypeTemplate@FunctionTemplate@v8@@QAE?AV?$Local@VObjectTemplate@v8@@@2@XZ 10018717 f   node:node.exe
 0001:00017721       __imp_load_?InstanceTemplate@FunctionTemplate@v8@@QAE?AV?$Local@VObjectTemplate@v8@@@2@XZ 10018721 f   node:node.exe
 0001:0001772b       __imp_load_?GetFunction@FunctionTemplate@v8@@QAE?AV?$Local@VFunction@v8@@@2@XZ 1001872b f   node:node.exe
 0001:00017735       __imp_load_?New@FunctionTemplate@v8@@SA?AV?$Local@VFunctionTemplate@v8@@@2@PAVIsolate@2@P6AXABV?$FunctionCallbackInfo@VValue@v8@@@2@@ZV?$Local@VValue@v8@@@2@V?$Local@VSignature@v8@@@2@H@Z 10018735 f   node:node.exe
 0001:0001773f       __imp_load_?Error@Exception@v8@@SA?AV?$Local@VValue@v8@@@2@V?$Local@VString@v8@@@2@@Z 1001873f f   node:node.exe
 0001:00017749       __imp_load_?TypeError@Exception@v8@@SA?AV?$Local@VValue@v8@@@2@V?$Local@VString@v8@@@2@@Z 10018749 f   node:node.exe
 0001:00017753       __imp_load_?NewFromUtf8@String@v8@@SA?AV?$MaybeLocal@VString@v8@@@2@PAVIsolate@2@PBDW4NewStringType@2@H@Z 10018753 f   node:node.exe
 0001:0001775d       __imp_load_?WriteUtf8@String@v8@@QBEHPADHPAHH@Z 1001875d f   node:node.exe
 0001:00017767       __imp_load_?Utf8Length@String@v8@@QBEHXZ 10018767 f   node:node.exe
 0001:00017771       __imp_load_?Length@String@v8@@QBEHXZ 10018771 f   node:node.exe
 0001:0001777b       __imp_load_?CreateHandle@HandleScope@v8@@KAPAPAVObject@internal@2@PAVIsolate@42@PAV342@@Z 1001877b f   node:node.exe
 0001:00017785       __imp_load_?CreateHandle@HandleScope@v8@@CAPAPAVObject@internal@2@PAVHeapObject@42@PAV342@@Z 10018785 f   node:node.exe
 0001:0001778f       __imp_load_??1HandleScope@v8@@QAE@XZ 1001878f f   node:node.exe
 0001:00017799       __imp_load_??0HandleScope@v8@@QAE@PAVIsolate@1@@Z 10018799 f   node:node.exe
 0001:000177a3       __imp_load_?SlowGetAlignedPointerFromInternalField@Object@v8@@AAEPAXH@Z 100187a3 f   node:node.exe
 0001:000177ad       __imp_load_?SlowGetInternalField@Object@v8@@AAE?AV?$Local@VValue@v8@@@2@H@Z 100187ad f   node:node.exe
 0001:000177b7       __imp_load_?New@Object@v8@@SA?AV?$Local@VObject@v8@@@2@PAVIsolate@2@@Z 100187b7 f   node:node.exe
 0001:000177c1       __imp_load_?SetAlignedPointerInInternalField@Object@v8@@QAEXHPAX@Z 100187c1 f   node:node.exe
 0001:000177cb       __imp_load_?SetInternalField@Object@v8@@QAEXHV?$Local@VValue@v8@@@2@@Z 100187cb f   node:node.exe
 0001:000177d5       __imp_load_?InternalFieldCount@Object@v8@@QAEHXZ 100187d5 f   node:node.exe
 0001:000177df       __imp_load_?Get@Object@v8@@QAE?AV?$Local@VValue@v8@@@2@V32@@Z 100187df f   node:node.exe
 0001:000177e9       __imp_load_?Set@Object@v8@@QAE_NV?$Local@VValue@v8@@@2@0@Z 100187e9 f   node:node.exe
 0001:000177f3       __imp_load_?Set@Template@v8@@QAEXV?$Local@VName@v8@@@2@V?$Local@VData@v8@@@2@W4PropertyAttribute@2@@Z 100187f3 f   node:node.exe
 0001:000177fd       __imp_load_?SetInternalFieldCount@ObjectTemplate@v8@@QAEXH@Z 100187fd f   node:node.exe
 0001:00017807       __imp_load_?NewInstance@ObjectTemplate@v8@@QAE?AV?$MaybeLocal@VObject@v8@@@2@V?$Local@VContext@v8@@@2@@Z 10018807 f   node:node.exe
 0001:00017811       __imp_load_?New@ObjectTemplate@v8@@SA?AV?$Local@VObjectTemplate@v8@@@2@PAVIsolate@2@V?$Local@VFunctionTemplate@v8@@@2@@Z 10018811 f   node:node.exe
 0001:0001781b       __imp_load_?NewFromUnsigned@Integer@v8@@SA?AV?$Local@VInteger@v8@@@2@PAVIsolate@2@I@Z 1001881b f   node:node.exe
 0001:00017825       __imp_load_?New@Integer@v8@@SA?AV?$Local@VInteger@v8@@@2@PAVIsolate@2@H@Z 10018825 f   node:node.exe
 0001:0001782f       __imp_load_?Call@Function@v8@@QAE?AV?$Local@VValue@v8@@@2@V32@HQAV32@@Z 1001882f f   node:node.exe
 0001:00017839       __imp_load_?ThrowException@Isolate@v8@@QAE?AV?$Local@VValue@v8@@@2@V32@@Z 10018839 f   node:node.exe
 0001:00017843       __imp_load_?GetCurrentContext@Isolate@v8@@QAE?AV?$Local@VContext@v8@@@2@XZ 10018843 f   node:node.exe
 0001:0001784d       __imp_load_?GetCurrent@Isolate@v8@@SAPAV12@XZ 1001884d f   node:node.exe
 0001:00017857       __imp_load_?Value@External@v8@@QBEPAXXZ 10018857 f   node:node.exe
 0001:00017861       __imp_load_?New@External@v8@@SA?AV?$Local@VExternal@v8@@@2@PAVIsolate@2@PAX@Z 10018861 f   node:node.exe
 0001:0001786b       __imp_load_?ToObject@Value@v8@@QBE?AV?$Local@VObject@v8@@@2@XZ 1001886b f   node:node.exe
 0001:00017875       __imp_load_?ToString@Value@v8@@QBE?AV?$Local@VString@v8@@@2@XZ 10018875 f   node:node.exe
 0001:0001787f       ??0bad_alloc@std@@QAE@ABV01@@Z 1001887f f i libcpmt:xthrow.obj
 0001:0001789a       ??1bad_alloc@std@@UAE@XZ   1001889a f i libcpmt:xthrow.obj
 0001:000178a5       ??_Gbad_alloc@std@@UAEPAXI@Z 100188a5 f i libcpmt:xthrow.obj
 0001:000178a5       ??_Ebad_alloc@std@@UAEPAXI@Z 100188a5 f i libcpmt:xthrow.obj
 0001:000178ca       ??_U@YAPAXI@Z              100188ca f   libcpmt:newaop.obj
 0001:000178d3       @__security_check_cookie@4 100188d3 f   LIBCMT:secchk.obj
 0001:000178f0       _memmove                   100188f0 f   LIBCMT:memmove.obj
 0001:00017f34       _free                      10018f34 f   LIBCMT:free.obj
 0001:00017f6c       _malloc                    10018f6c f   LIBCMT:malloc.obj
 0001:00017ffe       __wassert                  10018ffe f   LIBCMT:wassert.obj
 0001:000186a2       ___onexitinit              100196a2 f   LIBCMT:onexit.obj
 0001:000186d1       __onexit                   100196d1 f   LIBCMT:onexit.obj
 0001:000187cd       _atexit                    100197cd f   LIBCMT:onexit.obj
 0001:000187e2       ??_V@YAXPAX@Z              100197e2 f   LIBCMT:delete2.obj
 0001:000187e7       ??3@YAXPAX@Z               100197e7 f   LIBCMT:delete.obj
 0001:000187ec       ??2@YAPAXI@Z               100197ec f   LIBCMT:new.obj
 0001:0001883d       ??0_LocaleUpdate@@QAE@PAUlocaleinfo_struct@@@Z 1001983d f i LIBCMT:stricmp.obj
 0001:000188c5       ___ascii_stricmp           100198c5 f   LIBCMT:stricmp.obj
 0001:000188fe       __stricmp                  100198fe f   LIBCMT:stricmp.obj
 0001:00018945       __stricmp_l                10019945 f   LIBCMT:stricmp.obj
 0001:000189da       __CRT_INIT@12              100199da f   LIBCMT:dllcrt0.obj
 0001:00018b4c       __DllMainCRTStartup@12     10019b4c f   LIBCMT:dllcrt0.obj
 0001:00018c7d       ___DllXcptFilter           10019c7d f   LIBCMT:dllcrt0.obj
 0001:00018ca2       ___initstdio               10019ca2 f   LIBCMT:_file.obj
 0001:00018d15       ___endstdio                10019d15 f   LIBCMT:_file.obj
 0001:00018d3c       ___iob_func                10019d3c f   LIBCMT:_file.obj
 0001:00018d42       __lock_file                10019d42 f   LIBCMT:_file.obj
 0001:00018d81       __lock_file2               10019d81 f   LIBCMT:_file.obj
 0001:00018db1       __unlock_file              10019db1 f   LIBCMT:_file.obj
 0001:00018deb       __unlock_file2             10019deb f   LIBCMT:_file.obj
 0001:00018e18       _fprintf                   10019e18 f   LIBCMT:fprintf.obj
 0001:00018f2a       _realloc                   10019f2a f   LIBCMT:realloc.obj
 0001:00018fd5       __getenv_helper_nolock     10019fd5 f   LIBCMT:getenv.obj
 0001:00019059       _getenv                    1001a059 f   LIBCMT:getenv.obj
 0001:000190e0       _memcpy                    1001a0e0 f   LIBCMT:memcpy.obj
 0001:00019730       _strlen                    1001a730 f   LIBCMT:strlen.obj
 0001:000197bb       __CxxThrowException@8      1001a7bb f   LIBCMT:throw.obj
 0001:0001981e       ?_CallMemberFunction0@@YGXPAX0@Z 1001a81e f   LIBCMT:_trnsctrl_.obj
 0001:00019825       ??1type_info@@UAE@XZ       1001a825 f   LIBCMT:typinfo.obj
 0001:00019833       ??_Etype_info@@UAEPAXI@Z   1001a833 f i LIBCMT:typinfo.obj
 0001:00019833       ??_Gtype_info@@UAEPAXI@Z   1001a833 f i LIBCMT:typinfo.obj
 0001:00019852       __fpmath                   1001a852 f   LIBCMT:fpinit.obj
 0001:00019869       __cfltcvt_init             1001a869 f   LIBCMT:fpinit.obj
 0001:000198c9       ??0exception@std@@QAE@ABQBDH@Z 1001a8c9 f   LIBCMT:stdexcpt.obj
 0001:000198e4       ??0exception@std@@QAE@ABV01@@Z 1001a8e4 f   LIBCMT:stdexcpt.obj
 0001:00019907       ??1exception@std@@UAE@XZ   1001a907 f   LIBCMT:stdexcpt.obj
 0001:00019912       ??4exception@std@@QAEAAV01@ABV01@@Z 1001a912 f   LIBCMT:stdexcpt.obj
 0001:00019945       ??_Eexception@std@@UAEPAXI@Z 1001a945 f i LIBCMT:stdexcpt.obj
 0001:00019945       ??_Gexception@std@@UAEPAXI@Z 1001a945 f i LIBCMT:stdexcpt.obj
 0001:0001996a       ?_Copy_str@exception@std@@AAEXPBD@Z 1001a96a f   LIBCMT:stdexcpt.obj
 0001:000199a8       ?_Tidy@exception@std@@AAEXXZ 1001a9a8 f   LIBCMT:stdexcpt.obj
 0001:000199c4       ?what@exception@std@@UBEPBDXZ 1001a9c4 f   LIBCMT:stdexcpt.obj
 0001:000199d1       ___raise_securityfailure   1001a9d1 f   LIBCMT:gs_report.obj
 0001:00019a0e       ___report_gsfailure        1001aa0e f   LIBCMT:gs_report.obj
 0001:00019b09       ___isa_available_init      1001ab09 f   LIBCMT:cpu_disp.obj
 0001:00019c82       ___doserrno                1001ac82 f   LIBCMT:dosmap.obj
 0001:00019c95       __dosmaperr                1001ac95 f   LIBCMT:dosmap.obj
 0001:00019cb6       __errno                    1001acb6 f   LIBCMT:dosmap.obj
 0001:00019cc9       __get_errno_from_oserr     1001acc9 f   LIBCMT:dosmap.obj
 0001:00019d0a       __heap_init                1001ad0a f   LIBCMT:heapinit.obj
 0001:00019d1f       __heap_term                1001ad1f f   LIBCMT:heapinit.obj
 0001:00019d27       __callnewh                 1001ad27 f   LIBCMT:handler.obj
 0001:00019d4d       __initp_heap_handler       1001ad4d f   LIBCMT:handler.obj
 0001:00019d5a       ___crtCorExitProcess       1001ad5a f   LIBCMT:crt0dat.obj
 0001:00019d8e       ___crtExitProcess          1001ad8e f   LIBCMT:crt0dat.obj
 0001:00019da4       ___freeCrtMemory           1001ada4 f   LIBCMT:crt0dat.obj
 0001:00019eb1       __amsg_exit                1001aeb1 f   LIBCMT:crt0dat.obj
 0001:00019ecd       __cexit                    1001aecd f   LIBCMT:crt0dat.obj
 0001:00019edc       __cinit                    1001aedc f   LIBCMT:crt0dat.obj
 0001:00019f60       __exit                     1001af60 f   LIBCMT:crt0dat.obj
 0001:00019f74       __init_pointers            1001af74 f   LIBCMT:crt0dat.obj
 0001:00019fe2       __initterm_e               1001afe2 f   LIBCMT:crt0dat.obj
 0001:0001a004       __lockexit                 1001b004 f   LIBCMT:crt0dat.obj
 0001:0001a00d       __unlockexit               1001b00d f   LIBCMT:crt0dat.obj
 0001:0001a145       __FF_MSGBANNER             1001b145 f   LIBCMT:crt0msg.obj
 0001:0001a17e       __GET_RTERRMSG             1001b17e f   LIBCMT:crt0msg.obj
 0001:0001a1a2       __NMSG_WRITE               1001b1a2 f   LIBCMT:crt0msg.obj
 0001:0001a35f       __call_reportfault         1001b35f f   LIBCMT:invarg.obj
 0001:0001a484       __initp_misc_invarg        1001b484 f   LIBCMT:invarg.obj
 0001:0001a491       __invalid_parameter        1001b491 f   LIBCMT:invarg.obj
 0001:0001a4bc       __invalid_parameter_noinfo 1001b4bc f   LIBCMT:invarg.obj
 0001:0001a4cc       __invoke_watson            1001b4cc f   LIBCMT:invarg.obj
 0001:0001a4f7       _memcpy_s                  1001b4f7 f   LIBCMT:memcpy_s.obj
 0001:0001a576       _wcscat_s                  1001b576 f   LIBCMT:wcscat_s.obj
 0001:0001a5e2       _wcscpy_s                  1001b5e2 f   LIBCMT:wcscpy_s.obj
 0001:0001a63e       _wcslen                    1001b63e f   LIBCMT:wcslen.obj
 0001:0001a657       _wcsncat_s                 1001b657 f   LIBCMT:wcsncat_s.obj
 0001:0001a725       _abort                     1001b725 f   LIBCMT:abort.obj
 0001:0001a768       __set_error_mode           1001b768 f   LIBCMT:errmode.obj
 0001:0001a7a8       __itow_s                   1001b7a8 f   LIBCMT:xtows.obj
 0001:0001a8c4       __fflush_nolock            1001b8c4 f   LIBCMT:fflush.obj
 0001:0001a90a       __flush                    1001b90a f   LIBCMT:fflush.obj
 0001:0001a96e       __flushall                 1001b96e f   LIBCMT:fflush.obj
 0001:0001a977       _fflush                    1001b977 f   LIBCMT:fflush.obj
 0001:0001aab4       _setvbuf                   1001bab4 f   LIBCMT:setvbuf.obj
 0001:0001abba       _fwprintf                  1001bbba f   LIBCMT:fwprintf.obj
 0001:0001ac4e       __vswprintf_c_l            1001bc4e f   LIBCMT:vswprnc.obj
 0001:0001ac76       __vswprintf_helper         1001bc76 f   LIBCMT:vswprnc.obj
 0001:0001ad71       ___get_sigabrt             1001bd71 f   LIBCMT:winsig.obj
 0001:0001ad7e       __initp_misc_winsig        1001bd7e f   LIBCMT:winsig.obj
 0001:0001ad9a       _raise                     1001bd9a f   LIBCMT:winsig.obj
 0001:0001af8f       ___crtMessageBoxW          1001bf8f f   LIBCMT:crtmboxw.obj
 0001:0001b175       __msize                    1001c175 f   LIBCMT:msize.obj
 0001:0001b1a6       __calloc_crt               1001c1a6 f   LIBCMT:crtheap.obj
 0001:0001b1ee       __malloc_crt               1001c1ee f   LIBCMT:crtheap.obj
 0001:0001b235       __realloc_crt              1001c235 f   LIBCMT:crtheap.obj
 0001:0001b27f       __recalloc_crt             1001c27f f   LIBCMT:crtheap.obj
 0001:0001b2d0       __SEH_prolog4              1001c2d0 f   LIBCMT:sehprolg4.obj
 0001:0001b315       __SEH_epilog4              1001c315 f   LIBCMT:sehprolg4.obj
 0001:0001b330       __except_handler4          1001c330 f   LIBCMT:chandler4.obj
 0001:0001b4c4       __initp_misc_purevirt      1001c4c4 f   LIBCMT:inithelp.obj
 0001:0001b4e0       __CIsqrt                   1001c4e0 f   LIBCMT:sqrt.obj
 0001:0001b4f4       _sqrt                      1001c4f4     LIBCMT:sqrt.obj
 0001:0001b59a       __decomp                   1001c59a f   LIBCMT:util.obj
 0001:0001b66c       __set_exp                  1001c66c f   LIBCMT:util.obj
 0001:0001b69b       __handle_exc               1001c69b f   LIBCMT:fpexcept.obj
 0001:0001b879       __raise_exc                1001c879 f   LIBCMT:fpexcept.obj
 0001:0001b89a       __raise_exc_ex             1001c89a f   LIBCMT:fpexcept.obj
 0001:0001bb7f       __set_errno_from_matherr   1001cb7f f   LIBCMT:fpexcept.obj
 0001:0001bbac       ___set_fpsr_sse2           1001cbac f   LIBCMT:fpctrl.obj
 0001:0001bc22       __clrfp                    1001cc22 f   LIBCMT:fpctrl.obj
 0001:0001bc33       __ctrlfp                   1001cc33 f   LIBCMT:fpctrl.obj
 0001:0001bc5e       __set_statfp               1001cc5e f   LIBCMT:fpctrl.obj
 0001:0001bcb6       __statfp                   1001ccb6 f   LIBCMT:fpctrl.obj
 0001:0001bcc6       ___addlocaleref            1001ccc6 f   LIBCMT:localref.obj
 0001:0001bd5b       ___freetlocinfo            1001cd5b f   LIBCMT:localref.obj
 0001:0001beb5       ___removelocaleref         1001ceb5 f   LIBCMT:localref.obj
 0001:0001bf55       ___updatetlocinfo          1001cf55 f   LIBCMT:localref.obj
 0001:0001bfd5       __updatetlocinfoEx_nolock  1001cfd5 f   LIBCMT:localref.obj
 0001:0001c020       ___initmbctable            1001d020 f   LIBCMT:mbctype.obj
 0001:0001c2d7       ___updatetmbcinfo          1001d2d7 f   LIBCMT:mbctype.obj
 0001:0001c37d       __setmbcp                  1001d37d f   LIBCMT:mbctype.obj
 0001:0001c525       __setmbcp_nolock           1001d525 f   LIBCMT:mbctype.obj
 0001:0001c710       __tolower_l                1001d710 f   LIBCMT:tolower.obj
 0001:0001c853       _tolower                   1001d853 f   LIBCMT:tolower.obj
 0001:0001c87f       __freefls@4                1001d87f f   LIBCMT:tidtable.obj
 0001:0001c9b4       __freeptd                  1001d9b4 f   LIBCMT:tidtable.obj
 0001:0001c9ea       __getptd                   1001d9ea f   LIBCMT:tidtable.obj
 0001:0001ca02       __getptd_noexit            1001da02 f   LIBCMT:tidtable.obj
 0001:0001ca71       __initptd                  1001da71 f   LIBCMT:tidtable.obj
 0001:0001cb24       __mtinit                   1001db24 f   LIBCMT:tidtable.obj
 0001:0001cb9a       __mtterm                   1001db9a f   LIBCMT:tidtable.obj
 0001:0001cbb7       __locterm                  1001dbb7 f   LIBCMT:wsetloca.obj
 0001:0001cc09       __XcptFilter               1001dc09 f   LIBCMT:winxfltr.obj
 0001:0001cd64       ___CppXcptFilter           1001dd64 f   LIBCMT:winxfltr.obj
 0001:0001cd82       __ioinit                   1001dd82 f   LIBCMT:ioinit.obj
 0001:0001d036       __ioterm                   1001e036 f   LIBCMT:ioinit.obj
 0001:0001d088       __setargv                  1001e088 f   LIBCMT:stdargv.obj
 0001:0001d2b7       __setenvp                  1001e2b7 f   LIBCMT:stdenvp.obj
 0001:0001d398       ___security_init_cookie    1001e398 f   LIBCMT:gs_support.obj
 0001:0001d434       _DllMain@12                1001e434 f   LIBCMT:dllmain.obj
 0001:0001d43a       ___crtGetEnvironmentStringsA 1001e43a f   LIBCMT:a_env.obj
 0001:0001d4c7       ___crtFlsAlloc             1001e4c7 f   LIBCMT:winapisupp.obj
 0001:0001d4e5       ___crtFlsFree              1001e4e5 f   LIBCMT:winapisupp.obj
 0001:0001d504       ___crtFlsGetValue          1001e504 f   LIBCMT:winapisupp.obj
 0001:0001d523       ___crtFlsSetValue          1001e523 f   LIBCMT:winapisupp.obj
 0001:0001d545       ___crtInitializeCriticalSectionEx 1001e545 f   LIBCMT:winapisupp.obj
 0001:0001d573       ___crtIsPackagedApp        1001e573 f   LIBCMT:winapisupp.obj
 0001:0001d5b3       ___crtLoadWinApiPointers   1001e5b3 f   LIBCMT:winapisupp.obj
 0001:0001d83e       ___crtSleep                1001e83e f   LIBCMT:winapisupp.obj
 0001:0001d84c       ___crtTerminateProcess     1001e84c f   LIBCMT:winapisupp.obj
 0001:0001d861       ___crtUnhandledException   1001e861 f   LIBCMT:winapisupp.obj
 0001:0001d877       __RTC_Initialize           1001e877 f   LIBCMT:initsect.obj
 0001:0001d897       __RTC_Terminate            1001e897 f   LIBCMT:initsect.obj
 0001:0001d8b7       __fcloseall                1001e8b7 f   LIBCMT:closeall.obj
 0001:0001d954       __lock                     1001e954 f   LIBCMT:mlock.obj
 0001:0001d988       __mtdeletelocks            1001e988 f   LIBCMT:mlock.obj
 0001:0001d9dc       __mtinitlocknum            1001e9dc f   LIBCMT:mlock.obj
 0001:0001da85       __mtinitlocks              1001ea85 f   LIBCMT:mlock.obj
 0001:0001dabe       __unlock                   1001eabe f   LIBCMT:mlock.obj
 0001:0001dad3       __fileno                   1001ead3 f   LIBCMT:fileno.obj
 0001:0001daf7       __ftbuf                    1001eaf7 f   LIBCMT:_sftbuf.obj
 0001:0001db28       __stbuf                    1001eb28 f   LIBCMT:_sftbuf.obj
 0001:0001dbce       __output_l                 1001ebce f   LIBCMT:output.obj
 0001:0001e83a       _strcpy_s                  1001f83a f   LIBCMT:strcpy_s.obj
 0001:0001e88f       _strnlen                   1001f88f f   LIBCMT:strlen_s.obj
 0001:0001e8aa       ___wtomb_environ           1001f8aa f   LIBCMT:wtombenv.obj
 0001:0001e939       __mbsnbicoll               1001f939 f   LIBCMT:mbsnbico.obj
 0001:0001e951       __mbsnbicoll_l             1001f951 f   LIBCMT:mbsnbico.obj
 0001:0001ea10       __CallSettingFrame@12      1001fa10 f   LIBCMT:lowhelpr.obj
 0001:0001ea37       __NLG_Return               1001fa37     LIBCMT:lowhelpr.obj
 0001:0001ea5c       ?terminate@@YAXXZ          1001fa5c f   LIBCMT:hooks.obj
 0001:0001ea90       __initp_eh_hooks           1001fa90 f   LIBCMT:hooks.obj
 0001:0001eaa1       ___DestructExceptionObject 1001faa1 f   LIBCMT:frame.obj
 0001:0001eb30       _strcmp                    1001fb30 f   LIBCMT:strcmp.obj
 0001:0001ebbc       ?_Type_info_dtor@type_info@@CAXPAV1@@Z 1001fbbc f   LIBCMT:typname.obj
 0001:0001ec2d       __cfltcvt                  1001fc2d f   LIBCMT:cvt.obj
 0001:0001ec4e       __cfltcvt_l                1001fc4e f   LIBCMT:cvt.obj
 0001:0001ecd4       __cftoa_l                  1001fcd4 f   LIBCMT:cvt.obj
 0001:0001f030       __cftoe                    10020030 f   LIBCMT:cvt.obj
 0001:0001f19f       __cftoe_l                  1002019f f   LIBCMT:cvt.obj
 0001:0001f359       __cftof_l                  10020359 f   LIBCMT:cvt.obj
 0001:0001f41a       __cftog_l                  1002041a f   LIBCMT:cvt.obj
 0001:0001f519       __cropzeros                10020519 f   LIBCMT:cvt.obj
 0001:0001f52a       __cropzeros_l              1002052a f   LIBCMT:cvt.obj
 0001:0001f5aa       __fassign                  100205aa f   LIBCMT:cvt.obj
 0001:0001f5c2       __fassign_l                100205c2 f   LIBCMT:cvt.obj
 0001:0001f604       __forcdecpt                10020604 f   LIBCMT:cvt.obj
 0001:0001f615       __forcdecpt_l              10020615 f   LIBCMT:cvt.obj
 0001:0001f689       __positive                 10020689 f   LIBCMT:cvt.obj
 0001:0001f6cb       __setdefaultprecision      100206cb f   LIBCMT:fp8.obj
 0001:0001f6f2       __initp_misc_cfltcvt_tab   100206f2 f   LIBCMT:cmiscdat.obj
 0001:0001f711       __crt_debugger_hook        10020711 f   LIBCMT:dbghook.obj
 0001:0001f720       __FindPESection            10020720 f   LIBCMT:pesect.obj
 0001:0001f770       __IsNonwritableInCurrentImage 10020770 f   LIBCMT:pesect.obj
 0001:0001f830       __ValidateImageBase        10020830 f   LIBCMT:pesect.obj
 0001:0001f861       __initp_misc_rand_s        10020861 f   LIBCMT:rand_s.obj
 0001:0001f86e       _wcsncpy_s                 1002086e f   LIBCMT:wcsncpy_s.obj
 0001:0001f930       _memset                    10020930 f   LIBCMT:memset.obj
 0001:0001f9c0       __aulldvrm                 100209c0 f   LIBCMT:ulldvrm.obj
 0001:0001fa55       __commit                   10020a55 f   LIBCMT:commit.obj
 0001:0001fb3e       __write                    10020b3e f   LIBCMT:write.obj
 0001:0001fc2d       __write_nolock             10020c2d f   LIBCMT:write.obj
 0001:00020492       __freebuf                  10021492 f   LIBCMT:_freebuf.obj
 0001:000204c2       __woutput_l                100214c2 f   LIBCMT:woutput.obj
 0001:000211a1       __flsbuf                   100221a1 f   LIBCMT:_flsbuf.obj
 0001:000212f0       __recalloc                 100222f0 f   LIBCMT:recalloc.obj
 0001:00021359       __calloc_impl              10022359 f   LIBCMT:calloc_impl.obj
 0001:000213e0       __local_unwind4            100223e0 f   LIBCMT:exsup4.obj
 0001:000214b6       __seh_longjmp_unwind4@4    100224b6 f   LIBCMT:exsup4.obj
 0001:000214d2       @_EH4_CallFilterFunc@8     100224d2 f   LIBCMT:exsup4.obj
 0001:000214e9       @_EH4_TransferToHandler@8  100224e9 f   LIBCMT:exsup4.obj
 0001:00021502       @_EH4_GlobalUnwind2@8      10022502 f   LIBCMT:exsup4.obj
 0001:0002151b       @_EH4_LocalUnwind@16       1002251b f   LIBCMT:exsup4.obj
 0001:00021532       __freea                    10022532 f i LIBCMT:a_loc.obj
 0001:00021550       _GetTableIndexFromLocaleName 10022550 f   LIBCMT:winapinls.obj
 0001:0002159e       ___crtCompareStringEx      1002259e f   LIBCMT:winapinls.obj
 0001:000215ea       ___crtDownlevelLocaleNameToLCID 100225ea f   LIBCMT:winapinls.obj
 0001:00021614       ___crtLCMapStringEx        10022614 f   LIBCMT:winapinls.obj
 0001:00021660       ___wcsnicmp_ascii          10022660 f   LIBCMT:winapinls.obj
 0001:000216d0       __trandisp1                100226d0 f   LIBCMT:87disp.obj
 0001:00021737       __trandisp2                10022737 f   LIBCMT:87disp.obj
 0001:000217c3       __rttospopde               100227c3     LIBCMT:87disp.obj
 0001:000217c8       __rttospop                 100227c8     LIBCMT:87disp.obj
 0001:000217ca       __rtnospop                 100227ca     LIBCMT:87disp.obj
 0001:000217cc       __rttosnpop                100227cc     LIBCMT:87disp.obj
 0001:000217cd       __rtnospopde               100227cd     LIBCMT:87disp.obj
 0001:000217d4       __rtzeropop                100227d4     LIBCMT:87disp.obj
 0001:000217d6       __rtzeronpop               100227d6     LIBCMT:87disp.obj
 0001:000217db       __rtonepop                 100227db     LIBCMT:87disp.obj
 0001:000217dd       __rtonenpop                100227dd     LIBCMT:87disp.obj
 0001:000217e2       __tosnan1                  100227e2     LIBCMT:87disp.obj
 0001:0002180d       __nosnan2                  1002280d     LIBCMT:87disp.obj
 0001:0002180f       __tosnan2                  1002280f     LIBCMT:87disp.obj
 0001:00021837       __nan2                     10022837     LIBCMT:87disp.obj
 0001:00021876       __rtindfpop                10022876     LIBCMT:87disp.obj
 0001:00021878       __rtindfnpop               10022878     LIBCMT:87disp.obj
 0001:00021889       __rttosnpopde              10022889     LIBCMT:87disp.obj
 0001:00021893       __rtchsifneg               10022893     LIBCMT:87disp.obj
 0001:000218a0       __startTwoArgErrorHandling 100228a0 f   LIBCMT:genexcep.obj
 0001:000218b7       __startOneArgErrorHandling 100228b7 f   LIBCMT:genexcep.obj
 0001:00021900       __twoToTOS                 10022900 f   LIBCMT:common.obj
 0001:00021915       __load_CW                  10022915 f   LIBCMT:common.obj
 0001:0002192c       __convertTOStoQNaN         1002292c f   LIBCMT:common.obj
 0001:00021945       __fload_withFB             10022945 f   LIBCMT:common.obj
 0001:00021988       __checkTOS_withFB          10022988 f   LIBCMT:common.obj
 0001:0002199e       __fast_exit                1002299e f   LIBCMT:common.obj
 0001:000219ab       __math_exit                100229ab f   LIBCMT:common.obj
 0001:000219d5       __check_overflow_exit      100229d5 f   LIBCMT:common.obj
 0001:000219e9       __check_range_exit         100229e9 f   LIBCMT:common.obj
 0001:00021a8c       ___free_lconv_mon          10022a8c f   LIBCMT:initmon.obj
 0001:00021b88       ___free_lconv_num          10022b88 f   LIBCMT:initnum.obj
 0001:00021bef       ___free_lc_time            10022bef f   LIBCMT:inittime.obj
 0001:00022173       ___crtLCMapStringA         10023173 f   LIBCMT:a_map.obj
 0001:000222b1       ___crtGetStringTypeA       100232b1 f   LIBCMT:a_str.obj
 0001:000222f1       __isctype_l                100232f1 f   LIBCMT:isctype.obj
 0001:000223a2       __isleadbyte_l             100233a2 f i LIBCMT:_wctype.obj
 0001:000223dc       _isleadbyte                100233dc f i LIBCMT:_wctype.obj
 0001:00022447       __ismbblead                10023447 f   LIBCMT:ismbbyte.obj
 0001:0002245d       __fclose_nolock            1002345d f   LIBCMT:fclose.obj
 0001:000224c9       _fclose                    100234c9 f   LIBCMT:fclose.obj
 0001:00022540       __isatty                   10023540 f   LIBCMT:isatty.obj
 0001:00022594       __get_printf_count_output  10023594 f   LIBCMT:printf.obj
 0001:000225a9       __wctomb_s_l               100235a9 f   LIBCMT:wctomb.obj
 0001:000226cd       _wctomb_s                  100236cd f   LIBCMT:wctomb.obj
 0001:000226e8       ___crtsetenv               100236e8 f   LIBCMT:setenv.obj
 0001:000229eb       __strnicoll_l              100239eb f   LIBCMT:strnicol.obj
 0001:00022d54       ___crtCompareStringA       10023d54 f   LIBCMT:a_cmp.obj
 0001:00022da0       __global_unwind2           10023da0 f   LIBCMT:exsup.obj
 0001:00022e05       __local_unwind2            10023e05 f   LIBCMT:exsup.obj
 0001:00022e89       __abnormal_termination     10023e89 f   LIBCMT:exsup.obj
 0001:00022eac       __NLG_Notify1              10023eac f   LIBCMT:exsup.obj
 0001:00022eb5       __NLG_Notify               10023eb5 f   LIBCMT:exsup.obj
 0001:00022ecc       __NLG_Dispatch2            10023ecc     LIBCMT:exsup.obj
 0001:00022ecc       __NLG_Dispatch             10023ecc     LIBCMT:exsup.obj
 0001:00022ed4       __NLG_Call                 10023ed4 f   LIBCMT:exsup.obj
 0001:00022ed6       __NLG_Return2              10023ed6     LIBCMT:exsup.obj
 0001:00022ed7       __isdigit_l                10023ed7 f i LIBCMT:_ctype.obj
 0001:00022f29       _isdigit                   10023f29 f i LIBCMT:_ctype.obj
 0001:00022f60       _strrchr                   10023f60 f   LIBCMT:strrchr.obj
 0001:00023097       __fptostr                  10024097 f   LIBCMT:_fptostr.obj
 0001:00023147       ___crt_atoflt_l            10024147 f   LIBCMT:atodbl.obj
 0001:000231eb       __atodbl_l                 100241eb f   LIBCMT:atodbl.obj
 0001:00023279       __atoflt_l                 10024279 f   LIBCMT:atodbl.obj
 0001:00023291       ___dtold                   10024291 f   LIBCMT:cfout.obj
 0001:00023359       __fltout2                  10024359 f   LIBCMT:cfout.obj
 0001:000233f0       __alldvrm                  100243f0 f   LIBCMT:lldvrm.obj
 0001:000234d0       __aullshr                  100244d0 f   LIBCMT:ullshr.obj
 0001:000234ef       __controlfp_s              100244ef f   LIBCMT:contrlfp.obj
 0001:0002354c       __fptrap                   1002454c f   LIBCMT:crt0fp.obj
 0001:00023555       __VEC_memset               10024555 f   LIBCMT:p4_memset.obj
 0001:0002361d       ___lock_fhandle            1002461d f   LIBCMT:osfinfo.obj
 0001:000236ab       __free_osfhnd              100246ab f   LIBCMT:osfinfo.obj
 0001:00023731       __get_osfhandle            10024731 f   LIBCMT:osfinfo.obj
 0001:00023798       __unlock_fhandle           10024798 f   LIBCMT:osfinfo.obj
 0001:000237be       __lseeki64                 100247be f   LIBCMT:lseeki64.obj
 0001:000238ba       __lseeki64_nolock          100248ba f   LIBCMT:lseeki64.obj
 0001:0002392d       __mbtowc_l                 1002492d f   LIBCMT:mbtowc.obj
 0001:00023a22       _mbtowc                    10024a22 f   LIBCMT:mbtowc.obj
 0001:00023a3a       __putwch_nolock            10024a3a f   LIBCMT:putwch.obj
 0001:00023a80       __alloca_probe             10024a80 f   LIBCMT:chkstk.obj
 0001:00023a80       __chkstk                   10024a80 f   LIBCMT:chkstk.obj
 0001:00023aab       __fputwc_nolock            10024aab f   LIBCMT:fputwc.obj
 0001:00023c31       __getbuf                   10024c31 f   LIBCMT:_getbuf.obj
 0001:00023c80       __alloca_probe_16          10024c80 f   LIBCMT:alloca16.obj
 0001:00023c96       __alloca_probe_8           10024c96     LIBCMT:alloca16.obj
 0001:00023cac       __87except                 10024cac f   LIBCMT:87except.obj
 0001:00023db5       __close                    10024db5 f   LIBCMT:close.obj
 0001:00023e90       __close_nolock             10024e90 f   LIBCMT:close.obj
 0001:00023f2a       __strdup                   10024f2a f   LIBCMT:strdup.obj
 0001:00023f7a       __mbschr                   10024f7a f   LIBCMT:mbschr.obj
 0001:00023f8f       __mbschr_l                 10024f8f f   LIBCMT:mbschr.obj
 0001:0002402c       __strnicmp_l               1002502c f   LIBCMT:strnicmp.obj
 0001:000240dd       __ld12tod                  100250dd f   LIBCMT:intrncvt.obj
 0001:0002464f       __ld12tof                  1002564f f   LIBCMT:intrncvt.obj
 0001:00024bc1       ___strgtold12_l            10025bc1 f   LIBCMT:strgtold.obj
 0001:00025369       _$I10_OUTPUT               10026369 f   LIBCMT:x10fout.obj
 0001:00025de6       __control87                10026de6 f i LIBCMT:ieee87.obj
 0001:0002617f       ___termconout              1002717f f   LIBCMT:initcon.obj
 0001:00026196       ___initconout              10027196 f   LIBCMT:initcon.obj
 0001:000261b5       __flswbuf                  100271b5 f   LIBCMT:_flswbuf.obj
 0001:00026320       _strchr                    10027320 f   LIBCMT:strchr.obj
 0001:0002638e       ___from_strstr_to_strchr   1002738e     LIBCMT:strchr.obj
 0001:00026450       ___ascii_strnicmp          10027450 f   LIBCMT:_strnicm.obj
 0001:000264b1       ___mtold12                 100274b1 f   LIBCMT:mantold.obj
 0001:000266a0       __allmul                   100276a0 f   LIBCMT:llmul.obj
 0001:000266e0       _RtlUnwind@16              100276e0 f   kernel32:KERNEL32.dll
 0001:000266e6       _IsProcessorFeaturePresent@4 100276e6 f   kernel32:KERNEL32.dll
 0001:000266ec       ___delayLoadHelper2@8      100276ec f   DelayImp:delayhlp.obj
 0002:00000000       __imp__GetModuleHandleA@4  10028000     kernel32:KERNEL32.dll
 0002:00000004       __imp__FreeLibrary@4       10028004     kernel32:KERNEL32.dll
 0002:00000008       __imp__GetSystemTimeAsFileTime@4 10028008     kernel32:KERNEL32.dll
 0002:0000000c       __imp__GetProcAddress@8    1002800c     kernel32:KERNEL32.dll
 0002:00000010       __imp__LoadLibraryA@4      10028010     kernel32:KERNEL32.dll
 0002:00000014       __imp__GetCurrentProcessId@0 10028014     kernel32:KERNEL32.dll
 0002:00000018       __imp__GetLastError@0      10028018     kernel32:KERNEL32.dll
 0002:0000001c       __imp__HeapFree@12         1002801c     kernel32:KERNEL32.dll
 0002:00000020       __imp__HeapAlloc@12        10028020     kernel32:KERNEL32.dll
 0002:00000024       __imp__GetStdHandle@4      10028024     kernel32:KERNEL32.dll
 0002:00000028       __imp__GetFileType@4       10028028     kernel32:KERNEL32.dll
 0002:0000002c       __imp__GetModuleFileNameW@12 1002802c     kernel32:KERNEL32.dll
 0002:00000030       __imp__GetModuleHandleExW@12 10028030     kernel32:KERNEL32.dll
 0002:00000034       __imp__WriteConsoleW@20    10028034     kernel32:KERNEL32.dll
 0002:00000038       __imp__EncodePointer@4     10028038     kernel32:KERNEL32.dll
 0002:0000003c       __imp__DecodePointer@4     1002803c     kernel32:KERNEL32.dll
 0002:00000040       __imp__GetCommandLineA@0   10028040     kernel32:KERNEL32.dll
 0002:00000044       __imp__GetCurrentThreadId@0 10028044     kernel32:KERNEL32.dll
 0002:00000048       __imp__EnterCriticalSection@4 10028048     kernel32:KERNEL32.dll
 0002:0000004c       __imp__LeaveCriticalSection@4 1002804c     kernel32:KERNEL32.dll
 0002:00000050       __imp__HeapReAlloc@16      10028050     kernel32:KERNEL32.dll
 0002:00000054       __imp__RaiseException@16   10028054     kernel32:KERNEL32.dll
 0002:00000058       __imp__RtlUnwind@16        10028058     kernel32:KERNEL32.dll
 0002:0000005c       __imp__IsDebuggerPresent@0 1002805c     kernel32:KERNEL32.dll
 0002:00000060       __imp__IsProcessorFeaturePresent@4 10028060     kernel32:KERNEL32.dll
 0002:00000064       __imp__GetProcessHeap@0    10028064     kernel32:KERNEL32.dll
 0002:00000068       __imp__ExitProcess@4       10028068     kernel32:KERNEL32.dll
 0002:0000006c       __imp__MultiByteToWideChar@24 1002806c     kernel32:KERNEL32.dll
 0002:00000070       __imp__WideCharToMultiByte@32 10028070     kernel32:KERNEL32.dll
 0002:00000074       __imp__WriteFile@20        10028074     kernel32:KERNEL32.dll
 0002:00000078       __imp__OutputDebugStringW@4 10028078     kernel32:KERNEL32.dll
 0002:0000007c       __imp__LoadLibraryExW@12   1002807c     kernel32:KERNEL32.dll
 0002:00000080       __imp__HeapSize@12         10028080     kernel32:KERNEL32.dll
 0002:00000084       __imp__IsValidCodePage@4   10028084     kernel32:KERNEL32.dll
 0002:00000088       __imp__GetACP@0            10028088     kernel32:KERNEL32.dll
 0002:0000008c       __imp__GetOEMCP@0          1002808c     kernel32:KERNEL32.dll
 0002:00000090       __imp__GetCPInfo@8         10028090     kernel32:KERNEL32.dll
 0002:00000094       __imp__SetLastError@4      10028094     kernel32:KERNEL32.dll
 0002:00000098       __imp__DeleteCriticalSection@4 10028098     kernel32:KERNEL32.dll
 0002:0000009c       __imp__GetStartupInfoW@4   1002809c     kernel32:KERNEL32.dll
 0002:000000a0       __imp__GetModuleFileNameA@12 100280a0     kernel32:KERNEL32.dll
 0002:000000a4       __imp__QueryPerformanceCounter@4 100280a4     kernel32:KERNEL32.dll
 0002:000000a8       __imp__GetEnvironmentStringsW@0 100280a8     kernel32:KERNEL32.dll
 0002:000000ac       __imp__FreeEnvironmentStringsW@4 100280ac     kernel32:KERNEL32.dll
 0002:000000b0       __imp__UnhandledExceptionFilter@4 100280b0     kernel32:KERNEL32.dll
 0002:000000b4       __imp__SetUnhandledExceptionFilter@4 100280b4     kernel32:KERNEL32.dll
 0002:000000b8       __imp__InitializeCriticalSectionAndSpinCount@8 100280b8     kernel32:KERNEL32.dll
 0002:000000bc       __imp__Sleep@4             100280bc     kernel32:KERNEL32.dll
 0002:000000c0       __imp__GetCurrentProcess@0 100280c0     kernel32:KERNEL32.dll
 0002:000000c4       __imp__TerminateProcess@8  100280c4     kernel32:KERNEL32.dll
 0002:000000c8       __imp__TlsAlloc@0          100280c8     kernel32:KERNEL32.dll
 0002:000000cc       __imp__TlsGetValue@4       100280cc     kernel32:KERNEL32.dll
 0002:000000d0       __imp__TlsSetValue@8       100280d0     kernel32:KERNEL32.dll
 0002:000000d4       __imp__TlsFree@4           100280d4     kernel32:KERNEL32.dll
 0002:000000d8       __imp__GetModuleHandleW@4  100280d8     kernel32:KERNEL32.dll
 0002:000000dc       __imp__FlushFileBuffers@4  100280dc     kernel32:KERNEL32.dll
 0002:000000e0       __imp__GetConsoleCP@0      100280e0     kernel32:KERNEL32.dll
 0002:000000e4       __imp__GetConsoleMode@8    100280e4     kernel32:KERNEL32.dll
 0002:000000e8       __imp__CompareStringW@24   100280e8     kernel32:KERNEL32.dll
 0002:000000ec       __imp__LCMapStringW@24     100280ec     kernel32:KERNEL32.dll
 0002:000000f0       __imp__GetStringTypeW@16   100280f0     kernel32:KERNEL32.dll
 0002:000000f4       __imp__SetEnvironmentVariableA@8 100280f4     kernel32:KERNEL32.dll
 0002:000000f8       __imp__SetStdHandle@8      100280f8     kernel32:KERNEL32.dll
 0002:000000fc       __imp__SetFilePointerEx@20 100280fc     kernel32:KERNEL32.dll
 0002:00000100       __imp__CloseHandle@4       10028100     kernel32:KERNEL32.dll
 0002:00000104       __imp__CreateFileW@28      10028104     kernel32:KERNEL32.dll
 0002:00000108       __imp__LoadLibraryExA@12   10028108     kernel32:KERNEL32.dll
 0002:0000010c       \177KERNEL32_NULL_THUNK_DATA 1002810c     kernel32:KERNEL32.dll
 0002:00000110       ___xc_a                    10028110     LIBCMT:crt0init.obj
 0002:0000011c       __register_node_expat_     1002811c     node-expat.obj
 0002:00000120       ___xc_z                    10028120     LIBCMT:crt0init.obj
 0002:00000124       ___xi_a                    10028124     LIBCMT:crt0init.obj
 0002:00000138       ___xi_z                    10028138     LIBCMT:crt0init.obj
 0002:0000013c       ___xp_a                    1002813c     LIBCMT:crt0init.obj
 0002:0000014c       ___xp_z                    1002814c     LIBCMT:crt0init.obj
 0002:00000150       ___xt_a                    10028150     LIBCMT:crt0init.obj
 0002:00000154       ___xt_z                    10028154     LIBCMT:crt0init.obj
 0002:000001a0       __sz_node_exe              100281a0     node:node.exe
 0002:00000680       ??_C@_0BC@CIJDGCDI@permission?5denied?$AA@ 10028680     libcpmt:syserror.obj
 0002:00000694       ??_C@_0M@MIDIAGJP@file?5exists?$AA@ 10028694     libcpmt:syserror.obj
 0002:000006a0       ??_C@_0P@FDINDDOK@no?5such?5device?$AA@ 100286a0     libcpmt:syserror.obj
 0002:000006b0       ??_C@_0BC@EJHOMAAK@filename?5too?5long?$AA@ 100286b0     libcpmt:syserror.obj
 0002:000006c4       ??_C@_0BI@NGCEHDD@device?5or?5resource?5busy?$AA@ 100286c4     libcpmt:syserror.obj
 0002:000006dc       ??_C@_08GLNPIFBN@io?5error?$AA@ 100286dc     libcpmt:syserror.obj
 0002:000006e8       ??_C@_0BE@JIDOCPHM@directory?5not?5empty?$AA@ 100286e8     libcpmt:syserror.obj
 0002:000006fc       ??_C@_0BB@FCMFBGOM@invalid?5argument?$AA@ 100286fc     libcpmt:syserror.obj
 0002:00000710       ??_C@_0BD@IJDJKDEA@no?5space?5on?5device?$AA@ 10028710     libcpmt:syserror.obj
 0002:00000724       ??_C@_0BK@NDOCBPGE@no?5such?5file?5or?5directory?$AA@ 10028724     libcpmt:syserror.obj
 0002:00000740       ??_C@_0BH@KEFGLDAF@function?5not?5supported?$AA@ 10028740     libcpmt:syserror.obj
 0002:00000758       ??_C@_0BC@NJECKMKE@no?5lock?5available?$AA@ 10028758     libcpmt:syserror.obj
 0002:0000076c       ??_C@_0BC@ENOOLCNF@not?5enough?5memory?$AA@ 1002876c     libcpmt:syserror.obj
 0002:00000780       ??_C@_0BP@LKNGHENJ@resource?5unavailable?5try?5again?$AA@ 10028780     libcpmt:syserror.obj
 0002:000007a0       ??_C@_0BC@PPHBOELF@cross?5device?5link?$AA@ 100287a0     libcpmt:syserror.obj
 0002:000007b4       ??_C@_0BD@MOLBPMEA@operation?5canceled?$AA@ 100287b4     libcpmt:syserror.obj
 0002:000007c8       ??_C@_0BE@GHAFMPAH@too?5many?5files?5open?$AA@ 100287c8     libcpmt:syserror.obj
 0002:000007dc       ??_C@_0BC@FNODOBAE@permission_denied?$AA@ 100287dc     libcpmt:syserror.obj
 0002:000007f0       ??_C@_0P@LNDJPBFK@address_in_use?$AA@ 100287f0     libcpmt:syserror.obj
 0002:00000800       ??_C@_0BG@IPMGOJF@address_not_available?$AA@ 10028800     libcpmt:syserror.obj
 0002:00000818       ??_C@_0BN@LCBDHODA@address_family_not_supported?$AA@ 10028818     libcpmt:syserror.obj
 0002:00000838       ??_C@_0BP@FOJJHMCC@connection_already_in_progress?$AA@ 10028838     libcpmt:syserror.obj
 0002:00000858       ??_C@_0BE@DLHHIBGN@bad_file_descriptor?$AA@ 10028858     libcpmt:syserror.obj
 0002:0000086c       ??_C@_0BD@OJMJDIGI@connection_aborted?$AA@ 1002886c     libcpmt:syserror.obj
 0002:00000880       ??_C@_0BD@NGKCIFEP@connection_refused?$AA@ 10028880     libcpmt:syserror.obj
 0002:00000894       ??_C@_0BB@JOANDNCK@connection_reset?$AA@ 10028894     libcpmt:syserror.obj
 0002:000008a8       ??_C@_0BN@JLJNLKLK@destination_address_required?$AA@ 100288a8     libcpmt:syserror.obj
 0002:000008c8       ??_C@_0M@IJGMGFGP@bad_address?$AA@ 100288c8     libcpmt:syserror.obj
 0002:000008d4       ??_C@_0BB@KKNHPPIN@host_unreachable?$AA@ 100288d4     libcpmt:syserror.obj
 0002:000008e8       ??_C@_0BG@DJGBJIIK@operation_in_progress?$AA@ 100288e8     libcpmt:syserror.obj
 0002:00000900       ??_C@_0M@EGEKIIMP@interrupted?$AA@ 10028900     libcpmt:syserror.obj
 0002:0000090c       ??_C@_0BB@FFIHMIPJ@invalid_argument?$AA@ 1002890c     libcpmt:syserror.obj
 0002:00000920       ??_C@_0BC@FIFLCHLO@already_connected?$AA@ 10028920     libcpmt:syserror.obj
 0002:00000934       ??_C@_0BE@GJJJJDDA@too_many_files_open?$AA@ 10028934     libcpmt:syserror.obj
 0002:00000948       ??_C@_0N@HPMLKHPL@message_size?$AA@ 10028948     libcpmt:syserror.obj
 0002:00000958       ??_C@_0BC@LEEIKBAL@filename_too_long?$AA@ 10028958     libcpmt:syserror.obj
 0002:0000096c       ??_C@_0N@FCPALPJK@network_down?$AA@ 1002896c     libcpmt:syserror.obj
 0002:0000097c       ??_C@_0O@EHNDLHIG@network_reset?$AA@ 1002897c     libcpmt:syserror.obj
 0002:0000098c       ??_C@_0BE@JFNJIDNF@network_unreachable?$AA@ 1002898c     libcpmt:syserror.obj
 0002:000009a0       ??_C@_0BA@FDIJKJCL@no_buffer_space?$AA@ 100289a0     libcpmt:syserror.obj
 0002:000009b0       ??_C@_0BD@JHIHCGKP@no_protocol_option?$AA@ 100289b0     libcpmt:syserror.obj
 0002:000009c4       ??_C@_0O@GBCLHHD@not_connected?$AA@ 100289c4     libcpmt:syserror.obj
 0002:000009d4       ??_C@_0N@IMHKKLEM@not_a_socket?$AA@ 100289d4     libcpmt:syserror.obj
 0002:000009e4       ??_C@_0BI@ICEIDKLJ@operation_not_supported?$AA@ 100289e4     libcpmt:syserror.obj
 0002:000009fc       ??_C@_0BH@KAPBAIJF@protocol_not_supported?$AA@ 100289fc     libcpmt:syserror.obj
 0002:00000a14       ??_C@_0BE@GAOJJFPC@wrong_protocol_type?$AA@ 10028a14     libcpmt:syserror.obj
 0002:00000a28       ??_C@_09NCHNLHPG@timed_out?$AA@ 10028a28     libcpmt:syserror.obj
 0002:00000a34       ??_C@_0BG@GDGHKFDH@operation_would_block?$AA@ 10028a34     libcpmt:syserror.obj
 0002:00000a4c       ??_C@_0BN@LKKBCCDB@address?5family?5not?5supported?$AA@ 10028a4c     libcpmt:syserror.obj
 0002:00000a6c       ??_C@_0P@LDMLAFHI@address?5in?5use?$AA@ 10028a6c     libcpmt:syserror.obj
 0002:00000a7c       ??_C@_0BG@DHPCNBJB@address?5not?5available?$AA@ 10028a7c     libcpmt:syserror.obj
 0002:00000a94       ??_C@_0BC@DFIBIBIL@already?5connected?$AA@ 10028a94     libcpmt:syserror.obj
 0002:00000aa8       ??_C@_0BH@CAKOHOMI@argument?5list?5too?5long?$AA@ 10028aa8     libcpmt:syserror.obj
 0002:00000ac0       ??_C@_0BH@CGIMPKIM@argument?5out?5of?5domain?$AA@ 10028ac0     libcpmt:syserror.obj
 0002:00000ad8       ??_C@_0M@KGHGGJGL@bad?5address?$AA@ 10028ad8     libcpmt:syserror.obj
 0002:00000ae4       ??_C@_0BE@MPJPGCEO@bad?5file?5descriptor?$AA@ 10028ae4     libcpmt:syserror.obj
 0002:00000af8       ??_C@_0M@PMMIEFCP@bad?5message?$AA@ 10028af8     libcpmt:syserror.obj
 0002:00000b04       ??_C@_0M@KPHOFDBE@broken?5pipe?$AA@ 10028b04     libcpmt:syserror.obj
 0002:00000b10       ??_C@_0BD@MGNDDEGM@connection?5aborted?$AA@ 10028b10     libcpmt:syserror.obj
 0002:00000b24       ??_C@_0BP@KAIHPOGN@connection?5already?5in?5progress?$AA@ 10028b24     libcpmt:syserror.obj
 0002:00000b44       ??_C@_0BD@PJLIIJEL@connection?5refused?$AA@ 10028b44     libcpmt:syserror.obj
 0002:00000b58       ??_C@_0BB@IECNJNOI@connection?5reset?$AA@ 10028b58     libcpmt:syserror.obj
 0002:00000b6c       ??_C@_0BN@KDMIFEIP@destination?5address?5required?$AA@ 10028b6c     libcpmt:syserror.obj
 0002:00000b8c       ??_C@_0BI@BNCLIGPB@executable?5format?5error?$AA@ 10028b8c     libcpmt:syserror.obj
 0002:00000ba4       ??_C@_0P@DNAJLBJK@file?5too?5large?$AA@ 10028ba4     libcpmt:syserror.obj
 0002:00000bb4       ??_C@_0BB@DHFDFGDM@host?5unreachable?$AA@ 10028bb4     libcpmt:syserror.obj
 0002:00000bc8       ??_C@_0BD@JPHBMONG@identifier?5removed?$AA@ 10028bc8     libcpmt:syserror.obj
 0002:00000bdc       ??_C@_0BG@CDNPAGJK@illegal?5byte?5sequence?$AA@ 10028bdc     libcpmt:syserror.obj
 0002:00000bf4       ??_C@_0CD@BNPLBMNA@inappropriate?5io?5control?5operati@ 10028bf4     libcpmt:syserror.obj
 0002:00000c18       ??_C@_0N@OHAFKDEK@invalid?5seek?$AA@ 10028c18     libcpmt:syserror.obj
 0002:00000c28       ??_C@_0P@FLLDBIDK@is?5a?5directory?$AA@ 10028c28     libcpmt:syserror.obj
 0002:00000c38       ??_C@_0N@IFLPBIOP@message?5size?$AA@ 10028c38     libcpmt:syserror.obj
 0002:00000c48       ??_C@_0N@KIIEAAIO@network?5down?$AA@ 10028c48     libcpmt:syserror.obj
 0002:00000c58       ??_C@_0O@FNPDBHEE@network?5reset?$AA@ 10028c58     libcpmt:syserror.obj
 0002:00000c68       ??_C@_0BE@IFNCKGE@network?5unreachable?$AA@ 10028c68     libcpmt:syserror.obj
 0002:00000c7c       ??_C@_0BA@PFFCAOFK@no?5buffer?5space?$AA@ 10028c7c     libcpmt:syserror.obj
 0002:00000c8c       ??_C@_0BB@IEPBLJHK@no?5child?5process?$AA@ 10028c8c     libcpmt:syserror.obj
 0002:00000ca0       ??_C@_07PLECNNKG@no?5link?$AA@ 10028ca0     libcpmt:syserror.obj
 0002:00000ca8       ??_C@_0BF@PBGGPKKE@no?5message?5available?$AA@ 10028ca8     libcpmt:syserror.obj
 0002:00000cc0       ??_C@_0L@EDOLMPAK@no?5message?$AA@ 10028cc0     libcpmt:syserror.obj
 0002:00000ccc       ??_C@_0BD@EAMBFIDF@no?5protocol?5option?$AA@ 10028ccc     libcpmt:syserror.obj
 0002:00000ce0       ??_C@_0BE@MKFDAFMP@no?5stream?5resources?$AA@ 10028ce0     libcpmt:syserror.obj
 0002:00000cf4       ??_C@_0BK@IMCPHCBI@no?5such?5device?5or?5address?$AA@ 10028cf4     libcpmt:syserror.obj
 0002:00000d10       ??_C@_0BA@ENLPPKBN@no?5such?5process?$AA@ 10028d10     libcpmt:syserror.obj
 0002:00000d20       ??_C@_0BA@DOCPFFJG@not?5a?5directory?$AA@ 10028d20     libcpmt:syserror.obj
 0002:00000d30       ??_C@_0N@POEIPGGF@not?5a?5socket?$AA@ 10028d30     libcpmt:syserror.obj
 0002:00000d40       ??_C@_0N@LGAPMMPI@not?5a?5stream?$AA@ 10028d40     libcpmt:syserror.obj
 0002:00000d50       ??_C@_0O@GLMIBBEG@not?5connected?$AA@ 10028d50     libcpmt:syserror.obj
 0002:00000d60       ??_C@_0O@NHEDABJP@not?5supported?$AA@ 10028d60     libcpmt:syserror.obj
 0002:00000d70       ??_C@_0BG@KDKHOPCO@operation?5in?5progress?$AA@ 10028d70     libcpmt:syserror.obj
 0002:00000d88       ??_C@_0BI@OHIEJAAB@operation?5not?5permitted?$AA@ 10028d88     libcpmt:syserror.obj
 0002:00000da0       ??_C@_0BI@LNEGIFLN@operation?5not?5supported?$AA@ 10028da0     libcpmt:syserror.obj
 0002:00000db8       ??_C@_0BG@OEMDKMEE@operation?5would?5block?$AA@ 10028db8     libcpmt:syserror.obj
 0002:00000dd0       ??_C@_0L@BLPOFLNJ@owner?5dead?$AA@ 10028dd0     libcpmt:syserror.obj
 0002:00000ddc       ??_C@_0P@FNPOCJBE@protocol?5error?$AA@ 10028ddc     libcpmt:syserror.obj
 0002:00000dec       ??_C@_0BH@JPPPLHJB@protocol?5not?5supported?$AA@ 10028dec     libcpmt:syserror.obj
 0002:00000e04       ??_C@_0BG@EICBIHDP@read?5only?5file?5system?$AA@ 10028e04     libcpmt:syserror.obj
 0002:00000e1c       ??_C@_0BO@BJBOMOEJ@resource?5deadlock?5would?5occur?$AA@ 10028e1c     libcpmt:syserror.obj
 0002:00000e3c       ??_C@_0BE@GOIPJJHG@result?5out?5of?5range?$AA@ 10028e3c     libcpmt:syserror.obj
 0002:00000e50       ??_C@_0BG@MPLKFPAE@state?5not?5recoverable?$AA@ 10028e50     libcpmt:syserror.obj
 0002:00000e68       ??_C@_0P@DIIFGFCG@stream?5timeout?$AA@ 10028e68     libcpmt:syserror.obj
 0002:00000e78       ??_C@_0P@IPFDMIFL@text?5file?5busy?$AA@ 10028e78     libcpmt:syserror.obj
 0002:00000e88       ??_C@_09KJPPMAOI@timed?5out?$AA@ 10028e88     libcpmt:syserror.obj
 0002:00000e94       ??_C@_0BO@HACHBEKI@too?5many?5files?5open?5in?5system?$AA@ 10028e94     libcpmt:syserror.obj
 0002:00000eb4       ??_C@_0P@HCOMKFCC@too?5many?5links?$AA@ 10028eb4     libcpmt:syserror.obj
 0002:00000ec4       ??_C@_0BO@EFGOJEF@too?5many?5symbolic?5link?5levels?$AA@ 10028ec4     libcpmt:syserror.obj
 0002:00000ee4       ??_C@_0BA@KGKGOOJA@value?5too?5large?$AA@ 10028ee4     libcpmt:syserror.obj
 0002:00000ef4       ??_C@_0BE@MIEJDDNH@wrong?5protocol?5type?$AA@ 10028ef4     libcpmt:syserror.obj
 0002:00000f0c       ??_7bad_alloc@std@@6B@     10028f0c     libcpmt:xthrow.obj
 0002:00000f14       ??_C@_0P@GHFPNOJB@bad?5allocation?$AA@ 10028f14     libcpmt:xthrow.obj
 0002:00000f24       ??_C@_17LGKOMLJ@?$AA?4?$AA?4?$AA?4?$AA?$AA@ 10028f24     LIBCMT:wassert.obj
 0002:00000f2c       ??_C@_13LBAGMAIH@?$AA?6?$AA?$AA@ 10028f2c     LIBCMT:wassert.obj
 0002:00000f30       ??_C@_15IABLJNFO@?$AA?6?$AA?6?$AA?$AA@ 10028f30     LIBCMT:wassert.obj
 0002:00000f38       ??_C@_1CE@OJBNHDMO@?$AAA?$AAs?$AAs?$AAe?$AAr?$AAt?$AAi?$AAo?$AAn?$AA?5?$AAf?$AAa?$AAi?$AAl?$AAe?$AAd?$AA?$CB?$AA?$AA@ 10028f38     LIBCMT:wassert.obj
 0002:00000f5c       ??_C@_1BE@PHKBBGE@?$AAP?$AAr?$AAo?$AAg?$AAr?$AAa?$AAm?$AA?3?$AA?5?$AA?$AA@ 10028f5c     LIBCMT:wassert.obj
 0002:00000f70       ??_C@_1CO@EAEJAADC@?$AA?$DM?$AAp?$AAr?$AAo?$AAg?$AAr?$AAa?$AAm?$AA?5?$AAn?$AAa?$AAm?$AAe?$AA?5?$AAu?$AAn?$AAk?$AAn?$AAo?$AAw?$AAn?$AA?$DO?$AA?$AA@ 10028f70     LIBCMT:wassert.obj
 0002:00000fa0       ??_C@_1O@HEMHKNDC@?$AAF?$AAi?$AAl?$AAe?$AA?3?$AA?5?$AA?$AA@ 10028fa0     LIBCMT:wassert.obj
 0002:00000fb0       ??_C@_1O@KCAFKHJE@?$AAL?$AAi?$AAn?$AAe?$AA?3?$AA?5?$AA?$AA@ 10028fb0     LIBCMT:wassert.obj
 0002:00000fc0       ??_C@_1BK@PEDCIPMA@?$AAE?$AAx?$AAp?$AAr?$AAe?$AAs?$AAs?$AAi?$AAo?$AAn?$AA?3?$AA?5?$AA?$AA@ 10028fc0     LIBCMT:wassert.obj
 0002:00000fe0       ??_C@_1OA@EGMLFBHJ@?$AAF?$AAo?$AAr?$AA?5?$AAi?$AAn?$AAf?$AAo?$AAr?$AAm?$AAa?$AAt?$AAi?$AAo?$AAn?$AA?5?$AAo?$AAn?$AA?5?$AAh?$AAo?$AAw?$AA?5?$AAy?$AAo?$AAu?$AAr?$AA?5?$AAp?$AAr?$AAo?$AAg@ 10028fe0     LIBCMT:wassert.obj
 0002:000010c0       ??_C@_1HK@POCJMFGK@?$AA?$CI?$AAP?$AAr?$AAe?$AAs?$AAs?$AA?5?$AAR?$AAe?$AAt?$AAr?$AAy?$AA?5?$AAt?$AAo?$AA?5?$AAd?$AAe?$AAb?$AAu?$AAg?$AA?5?$AAt?$AAh?$AAe?$AA?5?$AAa?$AAp?$AAp?$AAl?$AAi?$AAc@ 100290c0     LIBCMT:wassert.obj
 0002:00001140       ??_C@_1EK@MBDPDCGA@?$AAM?$AAi?$AAc?$AAr?$AAo?$AAs?$AAo?$AAf?$AAt?$AA?5?$AAV?$AAi?$AAs?$AAu?$AAa?$AAl?$AA?5?$AAC?$AA?$CL?$AA?$CL?$AA?5?$AAR?$AAu?$AAn?$AAt?$AAi?$AAm?$AAe?$AA?5?$AAL?$AAi?$AAb@ 10029140     LIBCMT:wassert.obj
 0002:0000118c       __pDefaultRawDllMain       1002918c     LIBCMT:dllcrt0.obj
 0002:0000118c       __pRawDllMain              1002918c     LIBCMT:dllcrt0.obj
 0002:000011b4       ??_7type_info@@6B@         100291b4     LIBCMT:typinfo.obj
 0002:000011b8       __FPinit                   100291b8     LIBCMT:fpinit.obj
 0002:000011c0       ??_7exception@std@@6B@     100291c0     LIBCMT:stdexcpt.obj
 0002:000011c8       ??_C@_0BC@EOODALEL@Unknown?5exception?$AA@ 100291c8     LIBCMT:stdexcpt.obj
 0002:000011e4       ??_C@_1BI@BGOHAHKC@?$AAm?$AAs?$AAc?$AAo?$AAr?$AAe?$AAe?$AA?4?$AAd?$AAl?$AAl?$AA?$AA@ 100291e4     LIBCMT:crt0dat.obj
 0002:000011fc       ??_C@_0P@MIGLKIOC@CorExitProcess?$AA@ 100291fc     LIBCMT:crt0dat.obj
 0002:000012c8       ??_C@_1FK@PGACCAFB@?$AAR?$AA6?$AA0?$AA0?$AA2?$AA?$AN?$AA?6?$AA?9?$AA?5?$AAf?$AAl?$AAo?$AAa?$AAt?$AAi?$AAn?$AAg?$AA?5?$AAp?$AAo?$AAi?$AAn?$AAt?$AA?5?$AAs?$AAu?$AAp?$AAp?$AAo?$AAr?$AAt?$AA?5@ 100292c8     LIBCMT:crt0msg.obj
 0002:00001328       ??_C@_1FE@LLNEDJMD@?$AAR?$AA6?$AA0?$AA0?$AA8?$AA?$AN?$AA?6?$AA?9?$AA?5?$AAn?$AAo?$AAt?$AA?5?$AAe?$AAn?$AAo?$AAu?$AAg?$AAh?$AA?5?$AAs?$AAp?$AAa?$AAc?$AAe?$AA?5?$AAf?$AAo?$AAr?$AA?5?$AAa?$AAr@ 10029328     LIBCMT:crt0msg.obj
 0002:00001380       ??_C@_1FI@HONFMGBI@?$AAR?$AA6?$AA0?$AA0?$AA9?$AA?$AN?$AA?6?$AA?9?$AA?5?$AAn?$AAo?$AAt?$AA?5?$AAe?$AAn?$AAo?$AAu?$AAg?$AAh?$AA?5?$AAs?$AAp?$AAa?$AAc?$AAe?$AA?5?$AAf?$AAo?$AAr?$AA?5?$AAe?$AAn@ 10029380     LIBCMT:crt0msg.obj
 0002:000013d8       ??_C@_1EG@BEHAGFJD@?$AAR?$AA6?$AA0?$AA1?$AA0?$AA?$AN?$AA?6?$AA?9?$AA?5?$AAa?$AAb?$AAo?$AAr?$AAt?$AA?$CI?$AA?$CJ?$AA?5?$AAh?$AAa?$AAs?$AA?5?$AAb?$AAe?$AAe?$AAn?$AA?5?$AAc?$AAa?$AAl?$AAl?$AAe?$AAd@ 100293d8     LIBCMT:crt0msg.obj
 0002:00001420       ??_C@_1FI@LOGNIKDM@?$AAR?$AA6?$AA0?$AA1?$AA6?$AA?$AN?$AA?6?$AA?9?$AA?5?$AAn?$AAo?$AAt?$AA?5?$AAe?$AAn?$AAo?$AAu?$AAg?$AAh?$AA?5?$AAs?$AAp?$AAa?$AAc?$AAe?$AA?5?$AAf?$AAo?$AAr?$AA?5?$AAt?$AAh@ 10029420     LIBCMT:crt0msg.obj
 0002:00001478       ??_C@_1FK@BEOGODMC@?$AAR?$AA6?$AA0?$AA1?$AA7?$AA?$AN?$AA?6?$AA?9?$AA?5?$AAu?$AAn?$AAe?$AAx?$AAp?$AAe?$AAc?$AAt?$AAe?$AAd?$AA?5?$AAm?$AAu?$AAl?$AAt?$AAi?$AAt?$AAh?$AAr?$AAe?$AAa?$AAd?$AA?5@ 10029478     LIBCMT:crt0msg.obj
 0002:000014d8       ??_C@_1EC@JIBHAOPH@?$AAR?$AA6?$AA0?$AA1?$AA8?$AA?$AN?$AA?6?$AA?9?$AA?5?$AAu?$AAn?$AAe?$AAx?$AAp?$AAe?$AAc?$AAt?$AAe?$AAd?$AA?5?$AAh?$AAe?$AAa?$AAp?$AA?5?$AAe?$AAr?$AAr?$AAo?$AAr?$AA?$AN?$AA?6@ 100294d8     LIBCMT:crt0msg.obj
 0002:00001520       ??_C@_1FC@ECHBIFBC@?$AAR?$AA6?$AA0?$AA1?$AA9?$AA?$AN?$AA?6?$AA?9?$AA?5?$AAu?$AAn?$AAa?$AAb?$AAl?$AAe?$AA?5?$AAt?$AAo?$AA?5?$AAo?$AAp?$AAe?$AAn?$AA?5?$AAc?$AAo?$AAn?$AAs?$AAo?$AAl?$AAe?$AA?5@ 10029520     LIBCMT:crt0msg.obj
 0002:00001578       ??_C@_1GK@FHCKBEFA@?$AAR?$AA6?$AA0?$AA2?$AA4?$AA?$AN?$AA?6?$AA?9?$AA?5?$AAn?$AAo?$AAt?$AA?5?$AAe?$AAn?$AAo?$AAu?$AAg?$AAh?$AA?5?$AAs?$AAp?$AAa?$AAc?$AAe?$AA?5?$AAf?$AAo?$AAr?$AA?5?$AA_?$AAo@ 10029578     LIBCMT:crt0msg.obj
 0002:000015e8       ??_C@_1EM@MAADIHMB@?$AAR?$AA6?$AA0?$AA2?$AA5?$AA?$AN?$AA?6?$AA?9?$AA?5?$AAp?$AAu?$AAr?$AAe?$AA?5?$AAv?$AAi?$AAr?$AAt?$AAu?$AAa?$AAl?$AA?5?$AAf?$AAu?$AAn?$AAc?$AAt?$AAi?$AAo?$AAn?$AA?5?$AAc@ 100295e8     LIBCMT:crt0msg.obj
 0002:00001638       ??_C@_1GK@MCAAGJMO@?$AAR?$AA6?$AA0?$AA2?$AA6?$AA?$AN?$AA?6?$AA?9?$AA?5?$AAn?$AAo?$AAt?$AA?5?$AAe?$AAn?$AAo?$AAu?$AAg?$AAh?$AA?5?$AAs?$AAp?$AAa?$AAc?$AAe?$AA?5?$AAf?$AAo?$AAr?$AA?5?$AAs?$AAt@ 10029638     LIBCMT:crt0msg.obj
 0002:000016a8       ??_C@_1GK@MFGOKLAG@?$AAR?$AA6?$AA0?$AA2?$AA7?$AA?$AN?$AA?6?$AA?9?$AA?5?$AAn?$AAo?$AAt?$AA?5?$AAe?$AAn?$AAo?$AAu?$AAg?$AAh?$AA?5?$AAs?$AAp?$AAa?$AAc?$AAe?$AA?5?$AAf?$AAo?$AAr?$AA?5?$AAl?$AAo@ 100296a8     LIBCMT:crt0msg.obj
 0002:00001718       ??_C@_1EK@HHFLMAOL@?$AAR?$AA6?$AA0?$AA2?$AA8?$AA?$AN?$AA?6?$AA?9?$AA?5?$AAu?$AAn?$AAa?$AAb?$AAl?$AAe?$AA?5?$AAt?$AAo?$AA?5?$AAi?$AAn?$AAi?$AAt?$AAi?$AAa?$AAl?$AAi?$AAz?$AAe?$AA?5?$AAh?$AAe@ 10029718     LIBCMT:crt0msg.obj
 0002:00001764       ??_C@_1DO@BMFCDCD@?$AAR?$AA6?$AA0?$AA3?$AA0?$AA?$AN?$AA?6?$AA?9?$AA?5?$AAC?$AAR?$AAT?$AA?5?$AAn?$AAo?$AAt?$AA?5?$AAi?$AAn?$AAi?$AAt?$AAi?$AAa?$AAl?$AAi?$AAz?$AAe?$AAd?$AA?$AN?$AA?6?$AA?$AA@ 10029764     LIBCMT:crt0msg.obj
 0002:000017a8       ??_C@_1MG@ENCOOIDF@?$AAR?$AA6?$AA0?$AA3?$AA1?$AA?$AN?$AA?6?$AA?9?$AA?5?$AAA?$AAt?$AAt?$AAe?$AAm?$AAp?$AAt?$AA?5?$AAt?$AAo?$AA?5?$AAi?$AAn?$AAi?$AAt?$AAi?$AAa?$AAl?$AAi?$AAz?$AAe?$AA?5?$AAt@ 100297a8     LIBCMT:crt0msg.obj
 0002:00001870       ??_C@_1GG@GOPILAJP@?$AAR?$AA6?$AA0?$AA3?$AA2?$AA?$AN?$AA?6?$AA?9?$AA?5?$AAn?$AAo?$AAt?$AA?5?$AAe?$AAn?$AAo?$AAu?$AAg?$AAh?$AA?5?$AAs?$AAp?$AAa?$AAc?$AAe?$AA?5?$AAf?$AAo?$AAr?$AA?5?$AAl?$AAo@ 10029870     LIBCMT:crt0msg.obj
 0002:000018d8       ??_C@_1BOO@KGEDBGAJ@?$AAR?$AA6?$AA0?$AA3?$AA3?$AA?$AN?$AA?6?$AA?9?$AA?5?$AAA?$AAt?$AAt?$AAe?$AAm?$AAp?$AAt?$AA?5?$AAt?$AAo?$AA?5?$AAu?$AAs?$AAe?$AA?5?$AAM?$AAS?$AAI?$AAL?$AA?5?$AAc?$AAo?$AAd@ 100298d8     LIBCMT:crt0msg.obj
 0002:00001ac8       ??_C@_1GG@MKFPEKFO@?$AAR?$AA6?$AA0?$AA3?$AA4?$AA?$AN?$AA?6?$AA?9?$AA?5?$AAi?$AAn?$AAc?$AAo?$AAn?$AAs?$AAi?$AAs?$AAt?$AAe?$AAn?$AAt?$AA?5?$AAo?$AAn?$AAe?$AAx?$AAi?$AAt?$AA?5?$AAb?$AAe?$AAg@ 10029ac8     LIBCMT:crt0msg.obj
 0002:00001b30       ??_C@_1BO@BFCDCGC@?$AAD?$AAO?$AAM?$AAA?$AAI?$AAN?$AA?5?$AAe?$AAr?$AAr?$AAo?$AAr?$AA?$AN?$AA?6?$AA?$AA@ 10029b30     LIBCMT:crt0msg.obj
 0002:00001b50       ??_C@_1BK@KMOMNAAI@?$AAS?$AAI?$AAN?$AAG?$AA?5?$AAe?$AAr?$AAr?$AAo?$AAr?$AA?$AN?$AA?6?$AA?$AA@ 10029b50     LIBCMT:crt0msg.obj
 0002:00001b6c       ??_C@_1BM@JBBEPPHI@?$AAT?$AAL?$AAO?$AAS?$AAS?$AA?5?$AAe?$AAr?$AAr?$AAo?$AAr?$AA?$AN?$AA?6?$AA?$AA@ 10029b6c     LIBCMT:crt0msg.obj
 0002:00001b88       ??_C@_15JNBOKNOG@?$AA?$AN?$AA?6?$AA?$AA@ 10029b88     LIBCMT:crt0msg.obj
 0002:00001b90       ??_C@_1BO@BKOMIGKJ@?$AAr?$AAu?$AAn?$AAt?$AAi?$AAm?$AAe?$AA?5?$AAe?$AAr?$AAr?$AAo?$AAr?$AA?5?$AA?$AA@ 10029b90     LIBCMT:crt0msg.obj
 0002:00001bb0       ??_C@_1DE@JNGNBFGO@?$AAR?$AAu?$AAn?$AAt?$AAi?$AAm?$AAe?$AA?5?$AAE?$AAr?$AAr?$AAo?$AAr?$AA?$CB?$AA?6?$AA?6?$AAP?$AAr?$AAo?$AAg?$AAr?$AAa?$AAm?$AA?3?$AA?5?$AA?$AA@ 10029bb0     LIBCMT:crt0msg.obj
 0002:00001be4       ??_C@_1BG@GOEBHBDC@?$AAU?$AAS?$AAE?$AAR?$AA3?$AA2?$AA?4?$AAD?$AAL?$AAL?$AA?$AA@ 10029be4     LIBCMT:crtmboxw.obj
 0002:00001bfc       ??_C@_0M@DLDCCGNP@MessageBoxW?$AA@ 10029bfc     LIBCMT:crtmboxw.obj
 0002:00001c08       ??_C@_0BA@HNOPNCHB@GetActiveWindow?$AA@ 10029c08     LIBCMT:crtmboxw.obj
 0002:00001c18       ??_C@_0BD@HHGDFDBJ@GetLastActivePopup?$AA@ 10029c18     LIBCMT:crtmboxw.obj
 0002:00001c2c       ??_C@_0BK@DEKFELLI@GetUserObjectInformationW?$AA@ 10029c2c     LIBCMT:crtmboxw.obj
 0002:00001c48       ??_C@_0BI@DFKBFLJE@GetProcessWindowStation?$AA@ 10029c48     LIBCMT:crtmboxw.obj
 0002:00001c60       ??_C@_03KHJOGHMM@exp?$AA@  10029c60     LIBCMT:fpexcept.obj
 0002:00001c64       ??_C@_03JGHBODFD@pow?$AA@  10029c64     LIBCMT:fpexcept.obj
 0002:00001c68       ??_C@_03MGHMBJCF@log?$AA@  10029c68     LIBCMT:fpexcept.obj
 0002:00001c6c       ??_C@_05HGHHAHAP@log10?$AA@ 10029c6c     LIBCMT:fpexcept.obj
 0002:00001c74       ??_C@_04COOMCNPB@sinh?$AA@ 10029c74     LIBCMT:fpexcept.obj
 0002:00001c7c       ??_C@_04HPJJNFIM@cosh?$AA@ 10029c7c     LIBCMT:fpexcept.obj
 0002:00001c84       ??_C@_04FJHINJAO@tanh?$AA@ 10029c84     LIBCMT:fpexcept.obj
 0002:00001c8c       ??_C@_04FIHNOPOL@asin?$AA@ 10029c8c     LIBCMT:fpexcept.obj
 0002:00001c94       ??_C@_04PDIFKINK@acos?$AA@ 10029c94     LIBCMT:fpexcept.obj
 0002:00001c9c       ??_C@_04MLLJIGOK@atan?$AA@ 10029c9c     LIBCMT:fpexcept.obj
 0002:00001ca4       ??_C@_05KNGEOGJB@atan2?$AA@ 10029ca4     LIBCMT:fpexcept.obj
 0002:00001cac       ??_C@_04EIAKFFMI@sqrt?$AA@ 10029cac     LIBCMT:fpexcept.obj
 0002:00001cb4       ??_C@_03BLEJJJBH@sin?$AA@  10029cb4     LIBCMT:fpexcept.obj
 0002:00001cb8       ??_C@_03LALBNOCG@cos?$AA@  10029cb8     LIBCMT:fpexcept.obj
 0002:00001cbc       ??_C@_03IIINPABG@tan?$AA@  10029cbc     LIBCMT:fpexcept.obj
 0002:00001cc0       ??_C@_04GFPJNGEK@ceil?$AA@ 10029cc0     LIBCMT:fpexcept.obj
 0002:00001cc8       ??_C@_05PBJFFIGL@floor?$AA@ 10029cc8     LIBCMT:fpexcept.obj
 0002:00001cd0       ??_C@_04ODHECPBC@fabs?$AA@ 10029cd0     LIBCMT:fpexcept.obj
 0002:00001cd8       ??_C@_04EHEDPDJG@modf?$AA@ 10029cd8     LIBCMT:fpexcept.obj
 0002:00001ce0       ??_C@_05CEJMAHNP@ldexp?$AA@ 10029ce0     LIBCMT:fpexcept.obj
 0002:00001ce8       ??_C@_05KBKMEMPO@_cabs?$AA@ 10029ce8     LIBCMT:fpexcept.obj
 0002:00001cf0       ??_C@_06MEIMCGCF@_hypot?$AA@ 10029cf0     LIBCMT:fpexcept.obj
 0002:00001cf8       ??_C@_04KEPJIHGP@fmod?$AA@ 10029cf8     LIBCMT:fpexcept.obj
 0002:00001d00       ??_C@_05GKKHEGJL@frexp?$AA@ 10029d00     LIBCMT:fpexcept.obj
 0002:00001d08       ??_C@_03MJLDFKDL@_y0?$AA@  10029d08     LIBCMT:fpexcept.obj
 0002:00001d0c       ??_C@_03NAKIGLHK@_y1?$AA@  10029d0c     LIBCMT:fpexcept.obj
 0002:00001d10       ??_C@_03ONILCKOB@_yn?$AA@  10029d10     LIBCMT:fpexcept.obj
 0002:00001d14       ??_C@_05JGDBENOH@_logb?$AA@ 10029d14     LIBCMT:fpexcept.obj
 0002:00001d1c       ??_C@_0L@KDOEJCKC@_nextafter?$AA@ 10029d1c     LIBCMT:fpexcept.obj
 0002:00001d38       ??_C@_1M@HPNHIDJI@?$AAj?$AAa?$AA?9?$AAJ?$AAP?$AA?$AA@ 10029d38     LIBCMT:mbctype.obj
 0002:00001d44       ??_C@_1M@BIBDDEMK@?$AAz?$AAh?$AA?9?$AAC?$AAN?$AA?$AA@ 10029d44     LIBCMT:mbctype.obj
 0002:00001d50       ??_C@_1M@JLOOOEGK@?$AAk?$AAo?$AA?9?$AAK?$AAR?$AA?$AA@ 10029d50     LIBCMT:mbctype.obj
 0002:00001d5c       ??_C@_1M@CLNBBOPM@?$AAz?$AAh?$AA?9?$AAT?$AAW?$AA?$AA@ 10029d5c     LIBCMT:mbctype.obj
 0002:00001d68       ??_C@_03KOEHGMDN@Sun?$AA@  10029d68     LIBCMT:nlsdata.obj
 0002:00001d6c       ??_C@_03PDAGKDH@Mon?$AA@   10029d6c     LIBCMT:nlsdata.obj
 0002:00001d70       ??_C@_03NAGEINEP@Tue?$AA@  10029d70     LIBCMT:nlsdata.obj
 0002:00001d74       ??_C@_03MHOMLAJA@Wed?$AA@  10029d74     LIBCMT:nlsdata.obj
 0002:00001d78       ??_C@_03IOFIKPDN@Thu?$AA@  10029d78     LIBCMT:nlsdata.obj
 0002:00001d7c       ??_C@_03IDIOELNC@Fri?$AA@  10029d7c     LIBCMT:nlsdata.obj
 0002:00001d80       ??_C@_03FEFJNEK@Sat?$AA@   10029d80     LIBCMT:nlsdata.obj
 0002:00001d84       ??_C@_06OOPIFAJ@Sunday?$AA@ 10029d84     LIBCMT:nlsdata.obj
 0002:00001d8c       ??_C@_06JLEDEDGH@Monday?$AA@ 10029d8c     LIBCMT:nlsdata.obj
 0002:00001d94       ??_C@_07BAAGCFCM@Tuesday?$AA@ 10029d94     LIBCMT:nlsdata.obj
 0002:00001d9c       ??_C@_09DLIGFAKA@Wednesday?$AA@ 10029d9c     LIBCMT:nlsdata.obj
 0002:00001da8       ??_C@_08HACCIKIA@Thursday?$AA@ 10029da8     LIBCMT:nlsdata.obj
 0002:00001db4       ??_C@_06JECMNKMI@Friday?$AA@ 10029db4     LIBCMT:nlsdata.obj
 0002:00001dbc       ??_C@_08INBOOONO@Saturday?$AA@ 10029dbc     LIBCMT:nlsdata.obj
 0002:00001dc8       ??_C@_03JIHJHPIE@Jan?$AA@  10029dc8     LIBCMT:nlsdata.obj
 0002:00001dcc       ??_C@_03HJBDCHOM@Feb?$AA@  10029dcc     LIBCMT:nlsdata.obj
 0002:00001dd0       ??_C@_03ODNJBKGA@Mar?$AA@  10029dd0     LIBCMT:nlsdata.obj
 0002:00001dd4       ??_C@_03LEOLGMJP@Apr?$AA@  10029dd4     LIBCMT:nlsdata.obj
 0002:00001dd8       ??_C@_03CNMDKL@May?$AA@    10029dd8     LIBCMT:nlsdata.obj
 0002:00001ddc       ??_C@_03IDFGHECI@Jun?$AA@  10029ddc     LIBCMT:nlsdata.obj
 0002:00001de0       ??_C@_03LBGABGKK@Jul?$AA@  10029de0     LIBCMT:nlsdata.obj
 0002:00001de4       ??_C@_03IFJFEIGA@Aug?$AA@  10029de4     LIBCMT:nlsdata.obj
 0002:00001de8       ??_C@_03GGCAPAJC@Sep?$AA@  10029de8     LIBCMT:nlsdata.obj
 0002:00001dec       ??_C@_03BMAOKBAD@Oct?$AA@  10029dec     LIBCMT:nlsdata.obj
 0002:00001df0       ??_C@_03JPJOFNIA@Nov?$AA@  10029df0     LIBCMT:nlsdata.obj
 0002:00001df4       ??_C@_03MKABNOCG@Dec?$AA@  10029df4     LIBCMT:nlsdata.obj
 0002:00001df8       ??_C@_07CGJPFGJA@January?$AA@ 10029df8     LIBCMT:nlsdata.obj
 0002:00001e00       ??_C@_08GNJGEPFN@February?$AA@ 10029e00     LIBCMT:nlsdata.obj
 0002:00001e0c       ??_C@_05HPCKOFNC@March?$AA@ 10029e0c     LIBCMT:nlsdata.obj
 0002:00001e14       ??_C@_05DMJDNLEJ@April?$AA@ 10029e14     LIBCMT:nlsdata.obj
 0002:00001e1c       ??_C@_04CNLMGBGM@June?$AA@ 10029e1c     LIBCMT:nlsdata.obj
 0002:00001e24       ??_C@_04MIEPOIFP@July?$AA@ 10029e24     LIBCMT:nlsdata.obj
 0002:00001e2c       ??_C@_06LBBHFDDG@August?$AA@ 10029e2c     LIBCMT:nlsdata.obj
 0002:00001e34       ??_C@_09BHHEALKD@September?$AA@ 10029e34     LIBCMT:nlsdata.obj
 0002:00001e40       ??_C@_07JJNFCEND@October?$AA@ 10029e40     LIBCMT:nlsdata.obj
 0002:00001e48       ??_C@_08HCHEGEOA@November?$AA@ 10029e48     LIBCMT:nlsdata.obj
 0002:00001e54       ??_C@_08EDHMEBNP@December?$AA@ 10029e54     LIBCMT:nlsdata.obj
 0002:00001e60       ??_C@_02DEDBPAFC@AM?$AA@   10029e60     LIBCMT:nlsdata.obj
 0002:00001e64       ??_C@_02CJNFDJBF@PM?$AA@   10029e64     LIBCMT:nlsdata.obj
 0002:00001e68       ??_C@_08BPBNCDIB@MM?1dd?1yy?$AA@ 10029e68     LIBCMT:nlsdata.obj
 0002:00001e74       ??_C@_0BE@CKGJFCPC@dddd?0?5MMMM?5dd?0?5yyyy?$AA@ 10029e74     LIBCMT:nlsdata.obj
 0002:00001e88       ??_C@_08JCCMCCIL@HH?3mm?3ss?$AA@ 10029e88     LIBCMT:nlsdata.obj
 0002:00001e94       ??_C@_17MBGCMIPB@?$AAS?$AAu?$AAn?$AA?$AA@ 10029e94     LIBCMT:nlsdata.obj
 0002:00001e9c       ??_C@_17KBOMKBF@?$AAM?$AAo?$AAn?$AA?$AA@ 10029e9c     LIBCMT:nlsdata.obj
 0002:00001ea4       ??_C@_17BMKGEGOJ@?$AAT?$AAu?$AAe?$AA?$AA@ 10029ea4     LIBCMT:nlsdata.obj
 0002:00001eac       ??_C@_17CJEDCEPE@?$AAW?$AAe?$AAd?$AA?$AA@ 10029eac     LIBCMT:nlsdata.obj
 0002:00001eb4       ??_C@_17PDPHAADD@?$AAT?$AAh?$AAu?$AA?$AA@ 10029eb4     LIBCMT:nlsdata.obj
 0002:00001ebc       ??_C@_17HFOLPPLP@?$AAF?$AAr?$AAi?$AA?$AA@ 10029ebc     LIBCMT:nlsdata.obj
 0002:00001ec4       ??_C@_17GGIBDPIH@?$AAS?$AAa?$AAt?$AA?$AA@ 10029ec4     LIBCMT:nlsdata.obj
 0002:00001ecc       ??_C@_1O@IHNHDHPB@?$AAS?$AAu?$AAn?$AAd?$AAa?$AAy?$AA?$AA@ 10029ecc     LIBCMT:nlsdata.obj
 0002:00001edc       ??_C@_1O@MMNBFLIA@?$AAM?$AAo?$AAn?$AAd?$AAa?$AAy?$AA?$AA@ 10029edc     LIBCMT:nlsdata.obj
 0002:00001eec       ??_C@_1BA@ENFBFFEK@?$AAT?$AAu?$AAe?$AAs?$AAd?$AAa?$AAy?$AA?$AA@ 10029eec     LIBCMT:nlsdata.obj
 0002:00001efc       ??_C@_1BE@EBOGMDOH@?$AAW?$AAe?$AAd?$AAn?$AAe?$AAs?$AAd?$AAa?$AAy?$AA?$AA@ 10029efc     LIBCMT:nlsdata.obj
 0002:00001f10       ??_C@_1BC@HHMNLIHE@?$AAT?$AAh?$AAu?$AAr?$AAs?$AAd?$AAa?$AAy?$AA?$AA@ 10029f10     LIBCMT:nlsdata.obj
 0002:00001f24       ??_C@_1O@PDICJHAG@?$AAF?$AAr?$AAi?$AAd?$AAa?$AAy?$AA?$AA@ 10029f24     LIBCMT:nlsdata.obj
 0002:00001f34       ??_C@_1BC@ENMNNPAJ@?$AAS?$AAa?$AAt?$AAu?$AAr?$AAd?$AAa?$AAy?$AA?$AA@ 10029f34     LIBCMT:nlsdata.obj
 0002:00001f48       ??_C@_17DKNBKCHM@?$AAJ?$AAa?$AAn?$AA?$AA@ 10029f48     LIBCMT:nlsdata.obj
 0002:00001f50       ??_C@_17LMDJEKJN@?$AAF?$AAe?$AAb?$AA?$AA@ 10029f50     LIBCMT:nlsdata.obj
 0002:00001f58       ??_C@_17CKNLEDEC@?$AAM?$AAa?$AAr?$AA?$AA@ 10029f58     LIBCMT:nlsdata.obj
 0002:00001f60       ??_C@_17LFPOIHDD@?$AAA?$AAp?$AAr?$AA?$AA@ 10029f60     LIBCMT:nlsdata.obj
 0002:00001f68       ??_C@_17PNNKMEED@?$AAM?$AAa?$AAy?$AA?$AA@ 10029f68     LIBCMT:nlsdata.obj
 0002:00001f70       ??_C@_17KCJGOCPB@?$AAJ?$AAu?$AAn?$AA?$AA@ 10029f70     LIBCMT:nlsdata.obj
 0002:00001f78       ??_C@_17IJPCKHK@?$AAJ?$AAu?$AAl?$AA?$AA@ 10029f78     LIBCMT:nlsdata.obj
 0002:00001f80       ??_C@_17ICPELBCN@?$AAA?$AAu?$AAg?$AA?$AA@ 10029f80     LIBCMT:nlsdata.obj
 0002:00001f88       ??_C@_17HCHCOKMG@?$AAS?$AAe?$AAp?$AA?$AA@ 10029f88     LIBCMT:nlsdata.obj
 0002:00001f90       ??_C@_17FNLKOI@?$AAO?$AAc?$AAt?$AA?$AA@ 10029f90     LIBCMT:nlsdata.obj
 0002:00001f98       ??_C@_17BBDMLCIG@?$AAN?$AAo?$AAv?$AA?$AA@ 10029f98     LIBCMT:nlsdata.obj
 0002:00001fa0       ??_C@_17EGKACKIF@?$AAD?$AAe?$AAc?$AA?$AA@ 10029fa0     LIBCMT:nlsdata.obj
 0002:00001fa8       ??_C@_1BA@EFMEIEBA@?$AAJ?$AAa?$AAn?$AAu?$AAa?$AAr?$AAy?$AA?$AA@ 10029fa8     LIBCMT:nlsdata.obj
 0002:00001fb8       ??_C@_1BC@JGDDFFAM@?$AAF?$AAe?$AAb?$AAr?$AAu?$AAa?$AAr?$AAy?$AA?$AA@ 10029fb8     LIBCMT:nlsdata.obj
 0002:00001fcc       ??_C@_1M@IKEENEDF@?$AAM?$AAa?$AAr?$AAc?$AAh?$AA?$AA@ 10029fcc     LIBCMT:nlsdata.obj
 0002:00001fd8       ??_C@_1M@GJNLMHFD@?$AAA?$AAp?$AAr?$AAi?$AAl?$AA?$AA@ 10029fd8     LIBCMT:nlsdata.obj
 0002:00001fe4       ??_C@_19EPFLPGAP@?$AAJ?$AAu?$AAn?$AAe?$AA?$AA@ 10029fe4     LIBCMT:nlsdata.obj
 0002:00001ff0       ??_C@_19BIFMLPCD@?$AAJ?$AAu?$AAl?$AAy?$AA?$AA@ 10029ff0     LIBCMT:nlsdata.obj
 0002:00001ffc       ??_C@_1O@PAHLKOAC@?$AAA?$AAu?$AAg?$AAu?$AAs?$AAt?$AA?$AA@ 10029ffc     LIBCMT:nlsdata.obj
 0002:0000200c       ??_C@_1BE@DKAAMBJL@?$AAS?$AAe?$AAp?$AAt?$AAe?$AAm?$AAb?$AAe?$AAr?$AA?$AA@ 1002a00c     LIBCMT:nlsdata.obj
 0002:00002020       ??_C@_1BA@EPANDLNG@?$AAO?$AAc?$AAt?$AAo?$AAb?$AAe?$AAr?$AA?$AA@ 1002a020     LIBCMT:nlsdata.obj
 0002:00002030       ??_C@_1BC@BGLIFPF@?$AAN?$AAo?$AAv?$AAe?$AAm?$AAb?$AAe?$AAr?$AA?$AA@ 1002a030     LIBCMT:nlsdata.obj
 0002:00002044       ??_C@_1BC@FEMKIFH@?$AAD?$AAe?$AAc?$AAe?$AAm?$AAb?$AAe?$AAr?$AA?$AA@ 1002a044     LIBCMT:nlsdata.obj
 0002:00002058       ??_C@_15ODEHAHHF@?$AAA?$AAM?$AA?$AA@ 1002a058     LIBCMT:nlsdata.obj
 0002:00002060       ??_C@_15CLMNNGEL@?$AAP?$AAM?$AA?$AA@ 1002a060     LIBCMT:nlsdata.obj
 0002:00002068       ??_C@_1BC@IEBCMHCM@?$AAM?$AAM?$AA?1?$AAd?$AAd?$AA?1?$AAy?$AAy?$AA?$AA@ 1002a068     LIBCMT:nlsdata.obj
 0002:0000207c       ??_C@_1CI@KNAKOEBC@?$AAd?$AAd?$AAd?$AAd?$AA?0?$AA?5?$AAM?$AAM?$AAM?$AAM?$AA?5?$AAd?$AAd?$AA?0?$AA?5?$AAy?$AAy?$AAy?$AAy?$AA?$AA@ 1002a07c     LIBCMT:nlsdata.obj
 0002:000020a4       ??_C@_1BC@GDGBMEMK@?$AAH?$AAH?$AA?3?$AAm?$AAm?$AA?3?$AAs?$AAs?$AA?$AA@ 1002a0a4     LIBCMT:nlsdata.obj
 0002:000020b8       ??_C@_1M@BMHNFIME@?$AAe?$AAn?$AA?9?$AAU?$AAS?$AA?$AA@ 1002a0b8     LIBCMT:nlsdata.obj
 0002:00002148       __XcptActTab               1002a148     LIBCMT:winxfltr.obj
 0002:000021d8       __XcptActTabCount          1002a1d8     LIBCMT:winxfltr.obj
 0002:000021dc       __XcptActTabSize           1002a1dc     LIBCMT:winxfltr.obj
 0002:000021e0       __First_FPE_Indx           1002a1e0     LIBCMT:winxfltr.obj
 0002:000021e4       __Num_FPE                  1002a1e4     LIBCMT:winxfltr.obj
 0002:000021e8       ??_C@_1BK@MGMFAEKH@?$AAk?$AAe?$AAr?$AAn?$AAe?$AAl?$AA3?$AA2?$AA?4?$AAd?$AAl?$AAl?$AA?$AA@ 1002a1e8     LIBCMT:winapisupp.obj
 0002:00002204       ??_C@_08KNHFBNJ@FlsAlloc?$AA@ 1002a204     LIBCMT:winapisupp.obj
 0002:00002210       ??_C@_07PEJMOBNF@FlsFree?$AA@ 1002a210     LIBCMT:winapisupp.obj
 0002:00002218       ??_C@_0M@GDNOONDI@FlsGetValue?$AA@ 1002a218     LIBCMT:winapisupp.obj
 0002:00002224       ??_C@_0M@JCPCPOEF@FlsSetValue?$AA@ 1002a224     LIBCMT:winapisupp.obj
 0002:00002230       ??_C@_0BM@HCFOFFN@InitializeCriticalSectionEx?$AA@ 1002a230     LIBCMT:winapisupp.obj
 0002:0000224c       ??_C@_0P@DLHPPCNH@CreateEventExW?$AA@ 1002a24c     LIBCMT:winapisupp.obj
 0002:0000225c       ??_C@_0BD@KIEEOEEH@CreateSemaphoreExW?$AA@ 1002a25c     LIBCMT:winapisupp.obj
 0002:00002270       ??_C@_0BI@BKLFFAPO@SetThreadStackGuarantee?$AA@ 1002a270     LIBCMT:winapisupp.obj
 0002:00002288       ??_C@_0BG@OGFAJCKC@CreateThreadpoolTimer?$AA@ 1002a288     LIBCMT:winapisupp.obj
 0002:000022a0       ??_C@_0BD@LPLEMMDI@SetThreadpoolTimer?$AA@ 1002a2a0     LIBCMT:winapisupp.obj
 0002:000022b4       ??_C@_0CA@FMNJENH@WaitForThreadpoolTimerCallbacks?$AA@ 1002a2b4     LIBCMT:winapisupp.obj
 0002:000022d4       ??_C@_0BF@DCFCCNOC@CloseThreadpoolTimer?$AA@ 1002a2d4     LIBCMT:winapisupp.obj
 0002:000022ec       ??_C@_0BF@FLABGKKM@CreateThreadpoolWait?$AA@ 1002a2ec     LIBCMT:winapisupp.obj
 0002:00002304       ??_C@_0BC@MGCOHNA@SetThreadpoolWait?$AA@ 1002a304     LIBCMT:winapisupp.obj
 0002:00002318       ??_C@_0BE@OCIOMIMP@CloseThreadpoolWait?$AA@ 1002a318     LIBCMT:winapisupp.obj
 0002:0000232c       ??_C@_0BJ@LKGHFHBO@FlushProcessWriteBuffers?$AA@ 1002a32c     LIBCMT:winapisupp.obj
 0002:00002348       ??_C@_0BP@KALKKPMO@FreeLibraryWhenCallbackReturns?$AA@ 1002a348     LIBCMT:winapisupp.obj
 0002:00002368       ??_C@_0BK@DFNBACLA@GetCurrentProcessorNumber?$AA@ 1002a368     LIBCMT:winapisupp.obj
 0002:00002384       ??_C@_0BP@KHGALBC@GetLogicalProcessorInformation?$AA@ 1002a384     LIBCMT:winapisupp.obj
 0002:000023a4       ??_C@_0BE@FKKLLFLM@CreateSymbolicLinkW?$AA@ 1002a3a4     LIBCMT:winapisupp.obj
 0002:000023b8       ??_C@_0BJ@OHNKDLIJ@SetDefaultDllDirectories?$AA@ 1002a3b8     LIBCMT:winapisupp.obj
 0002:000023d4       ??_C@_0BE@LJANKFHF@EnumSystemLocalesEx?$AA@ 1002a3d4     LIBCMT:winapisupp.obj
 0002:000023e8       ??_C@_0BA@IHGNDAEB@CompareStringEx?$AA@ 1002a3e8     LIBCMT:winapisupp.obj
 0002:000023f8       ??_C@_0BA@EPCJIIPD@GetDateFormatEx?$AA@ 1002a3f8     LIBCMT:winapisupp.obj
 0002:00002408       ??_C@_0BA@ONOKGCMP@GetLocaleInfoEx?$AA@ 1002a408     LIBCMT:winapisupp.obj
 0002:00002418       ??_C@_0BA@CIJJKCJJ@GetTimeFormatEx?$AA@ 1002a418     LIBCMT:winapisupp.obj
 0002:00002428       ??_C@_0BJ@PBCCBIPI@GetUserDefaultLocaleName?$AA@ 1002a428     LIBCMT:winapisupp.obj
 0002:00002444       ??_C@_0BC@CELBKLLA@IsValidLocaleName?$AA@ 1002a444     LIBCMT:winapisupp.obj
 0002:00002458       ??_C@_0O@KKBNKAPF@LCMapStringEx?$AA@ 1002a458     LIBCMT:winapisupp.obj
 0002:00002468       ??_C@_0BE@JOGNEJCI@GetCurrentPackageId?$AA@ 1002a468     LIBCMT:winapisupp.obj
 0002:0000247c       ??_C@_0P@CDHHOHKP@GetTickCount64?$AA@ 1002a47c     LIBCMT:winapisupp.obj
 0002:0000248c       ??_C@_0BO@KPCLFDJJ@GetFileInformationByHandleExW?$AA@ 1002a48c     LIBCMT:winapisupp.obj
 0002:000024ac       ??_C@_0BM@MHIDLABK@SetFileInformationByHandleW?$AA@ 1002a4ac     LIBCMT:winapisupp.obj
 0002:000024c8       ??_C@_06OJHGLDPL@?$CInull?$CJ?$AA@ 1002a4c8     LIBCMT:output.obj
 0002:000024d0       ??_C@_1O@CEDCILHN@?$AA?$CI?$AAn?$AAu?$AAl?$AAl?$AA?$CJ?$AA?$AA@ 1002a4d0     LIBCMT:output.obj
 0002:000024e0       ___lookuptable             1002a4e0     LIBCMT:output.obj
 0002:0000253c       __pDestructExceptionObject 1002a53c     LIBCMT:frame.obj
 0002:00002540       ??_C@_05KLBDPFGC@e?$CL000?$AA@ 1002a540     LIBCMT:cvt.obj
 0002:00002548       _LcidToLocaleNameTable     1002a548     LIBCMT:winapinls.obj
 0002:00002c68       _LocaleNameToIndexTable    1002ac68     LIBCMT:winapinls.obj
 0002:00003388       ??_C@_15EMKDOKLE@?$AAa?$AAr?$AA?$AA@ 1002b388     LIBCMT:winapinls.obj
 0002:00003390       ??_C@_15KNPADPLH@?$AAb?$AAg?$AA?$AA@ 1002b390     LIBCMT:winapinls.obj
 0002:00003398       ??_C@_15EDMHLDMO@?$AAc?$AAa?$AA?$AA@ 1002b398     LIBCMT:winapinls.obj
 0002:000033a0       ??_C@_1O@BPEAJADD@?$AAz?$AAh?$AA?9?$AAC?$AAH?$AAS?$AA?$AA@ 1002b3a0     LIBCMT:winapinls.obj
 0002:000033b0       ??_C@_15LJNHCMNK@?$AAc?$AAs?$AA?$AA@ 1002b3b0     LIBCMT:winapinls.obj
 0002:000033b8       ??_C@_15FOMCIDHG@?$AAd?$AAa?$AA?$AA@ 1002b3b8     LIBCMT:winapinls.obj
 0002:000033c0       ??_C@_15NBKABECB@?$AAd?$AAe?$AA?$AA@ 1002b3c0     LIBCMT:winapinls.obj
 0002:000033c8       ??_C@_15GHPEIIAO@?$AAe?$AAl?$AA?$AA@ 1002b3c8     LIBCMT:winapinls.obj
 0002:000033d0       ??_C@_15MNPNEAIF@?$AAe?$AAn?$AA?$AA@ 1002b3d0     LIBCMT:winapinls.obj
 0002:000033d8       ??_C@_15GPIOMPMH@?$AAe?$AAs?$AA?$AA@ 1002b3d8     LIBCMT:winapinls.obj
 0002:000033e0       ??_C@_15NGLOAKJC@?$AAf?$AAi?$AA?$AA@ 1002b3e0     LIBCMT:winapinls.obj
 0002:000033e8       ??_C@_15FBKGNKAM@?$AAf?$AAr?$AA?$AA@ 1002b3e8     LIBCMT:winapinls.obj
 0002:000033f0       ??_C@_15KGGCNEFK@?$AAh?$AAe?$AA?$AA@ 1002b3f0     LIBCMT:winapinls.obj
 0002:000033f8       ??_C@_15PGHLIDMF@?$AAh?$AAu?$AA?$AA@ 1002b3f8     LIBCMT:winapinls.obj
 0002:00003400       ??_C@_15BIEMAPLM@?$AAi?$AAs?$AA?$AA@ 1002b400     LIBCMT:winapinls.obj
 0002:00003408       ??_C@_15IFJLDHAF@?$AAi?$AAt?$AA?$AA@ 1002b408     LIBCMT:winapinls.obj
 0002:00003410       ??_C@_15GEMIOCAG@?$AAj?$AAa?$AA?$AA@ 1002b410     LIBCMT:winapinls.obj
 0002:00003418       ??_C@_15EPELEGJA@?$AAk?$AAo?$AA?$AA@ 1002b418     LIBCMT:winapinls.obj
 0002:00003420       ??_C@_15NDDHIMN@?$AAn?$AAl?$AA?$AA@ 1002b420     LIBCMT:winapinls.obj
 0002:00003428       ??_C@_15BPIGNHCD@?$AAn?$AAo?$AA?$AA@ 1002b428     LIBCMT:winapinls.obj
 0002:00003430       ??_C@_15DEOPBLCG@?$AAp?$AAl?$AA?$AA@ 1002b430     LIBCMT:winapinls.obj
 0002:00003438       ??_C@_15KBECGEFG@?$AAp?$AAt?$AA?$AA@ 1002b438     LIBCMT:winapinls.obj
 0002:00003440       ??_C@_15GLJCBFMD@?$AAr?$AAo?$AA?$AA@ 1002b440     LIBCMT:winapinls.obj
 0002:00003448       ??_C@_15FEDGKCDI@?$AAr?$AAu?$AA?$AA@ 1002b448     LIBCMT:winapinls.obj
 0002:00003450       ??_C@_15GLKMLLHM@?$AAh?$AAr?$AA?$AA@ 1002b450     LIBCMT:winapinls.obj
 0002:00003458       ??_C@_15CPKMFBDB@?$AAs?$AAk?$AA?$AA@ 1002b458     LIBCMT:winapinls.obj
 0002:00003460       ??_C@_15BAAIOGMK@?$AAs?$AAq?$AA?$AA@ 1002b460     LIBCMT:winapinls.obj
 0002:00003468       ??_C@_15INNPNOHD@?$AAs?$AAv?$AA?$AA@ 1002b468     LIBCMT:winapinls.obj
 0002:00003470       ??_C@_15CABMMOGH@?$AAt?$AAh?$AA?$AA@ 1002b470     LIBCMT:winapinls.obj
 0002:00003478       ??_C@_15BPLIHJJM@?$AAt?$AAr?$AA?$AA@ 1002b478     LIBCMT:winapinls.obj
 0002:00003480       ??_C@_15NEOEKKDJ@?$AAu?$AAr?$AA?$AA@ 1002b480     LIBCMT:winapinls.obj
 0002:00003488       ??_C@_15NFICGAJK@?$AAi?$AAd?$AA?$AA@ 1002b488     LIBCMT:winapinls.obj
 0002:00003490       ??_C@_15PJPFLCCM@?$AAu?$AAk?$AA?$AA@ 1002b490     LIBCMT:winapinls.obj
 0002:00003498       ??_C@_15HPJPHDM@?$AAb?$AAe?$AA?$AA@ 1002b498     LIBCMT:winapinls.obj
 0002:000034a0       ??_C@_15LCHLGJII@?$AAs?$AAl?$AA?$AA@ 1002b4a0     LIBCMT:winapinls.obj
 0002:000034a8       ??_C@_15PCFJPHHO@?$AAe?$AAt?$AA?$AA@ 1002b4a8     LIBCMT:winapinls.obj
 0002:000034b0       ??_C@_15HPFPGODN@?$AAl?$AAv?$AA?$AA@ 1002b4b0     LIBCMT:winapinls.obj
 0002:000034b8       ??_C@_15NFFGKGLG@?$AAl?$AAt?$AA?$AA@ 1002b4b8     LIBCMT:winapinls.obj
 0002:000034c0       ??_C@_15BDAKCCHN@?$AAf?$AAa?$AA?$AA@ 1002b4c0     LIBCMT:winapinls.obj
 0002:000034c8       ??_C@_15NFGIAIAJ@?$AAv?$AAi?$AA?$AA@ 1002b4c8     LIBCMT:winapinls.obj
 0002:000034d0       ??_C@_15LMKNDMHN@?$AAh?$AAy?$AA?$AA@ 1002b4d0     LIBCMT:winapinls.obj
 0002:000034d8       ??_C@_15IJBHMCFL@?$AAa?$AAz?$AA?$AA@ 1002b4d8     LIBCMT:winapinls.obj
 0002:000034e0       ??_C@_15EKOFJABL@?$AAe?$AAu?$AA?$AA@ 1002b4e0     LIBCMT:winapinls.obj
 0002:000034e8       ??_C@_15BGHADCNK@?$AAm?$AAk?$AA?$AA@ 1002b4e8     LIBCMT:winapinls.obj
 0002:000034f0       ??_C@_15JDNICKHM@?$AAa?$AAf?$AA?$AA@ 1002b4f0     LIBCMT:winapinls.obj
 0002:000034f8       ??_C@_15KPJEDBKD@?$AAk?$AAa?$AA?$AA@ 1002b4f8     LIBCMT:winapinls.obj
 0002:00003500       ??_C@_15PDNFFFEO@?$AAf?$AAo?$AA?$AA@ 1002b500     LIBCMT:winapinls.obj
 0002:00003508       ??_C@_15OMLEGLOC@?$AAh?$AAi?$AA?$AA@ 1002b508     LIBCMT:winapinls.obj
 0002:00003510       ??_C@_15IDNNENKK@?$AAm?$AAs?$AA?$AA@ 1002b510     LIBCMT:winapinls.obj
 0002:00003518       ??_C@_15MACJNBMH@?$AAk?$AAk?$AA?$AA@ 1002b518     LIBCMT:winapinls.obj
 0002:00003520       ??_C@_15DKDJEOND@?$AAk?$AAy?$AA?$AA@ 1002b520     LIBCMT:winapinls.obj
 0002:00003528       ??_C@_15DFGDLJBG@?$AAs?$AAw?$AA?$AA@ 1002b528     LIBCMT:winapinls.obj
 0002:00003530       ??_C@_15BBFAICNG@?$AAu?$AAz?$AA?$AA@ 1002b530     LIBCMT:winapinls.obj
 0002:00003538       ??_C@_15DKNDCGEA@?$AAt?$AAt?$AA?$AA@ 1002b538     LIBCMT:winapinls.obj
 0002:00003540       ??_C@_15MGIFMDPL@?$AAp?$AAa?$AA?$AA@ 1002b540     LIBCMT:winapinls.obj
 0002:00003548       ??_C@_15HCNDBBA@?$AAg?$AAu?$AA?$AA@ 1002b548     LIBCMT:winapinls.obj
 0002:00003550       ??_C@_15FNBEIBON@?$AAt?$AAa?$AA?$AA@ 1002b550     LIBCMT:winapinls.obj
 0002:00003558       ??_C@_15NCHGBGLK@?$AAt?$AAe?$AA?$AA@ 1002b558     LIBCMT:winapinls.obj
 0002:00003560       ??_C@_15PHPHCBPF@?$AAk?$AAn?$AA?$AA@ 1002b560     LIBCMT:winapinls.obj
 0002:00003568       ??_C@_15DLGBCKMP@?$AAm?$AAr?$AA?$AA@ 1002b568     LIBCMT:winapinls.obj
 0002:00003570       ??_C@_15EABBLBFF@?$AAs?$AAa?$AA?$AA@ 1002b570     LIBCMT:winapinls.obj
 0002:00003578       ??_C@_15CBKOMCOI@?$AAm?$AAn?$AA?$AA@ 1002b578     LIBCMT:winapinls.obj
 0002:00003580       ??_C@_15CKDMCJAF@?$AAg?$AAl?$AA?$AA@ 1002b580     LIBCMT:winapinls.obj
 0002:00003588       ??_C@_17CNJFBPG@?$AAk?$AAo?$AAk?$AA?$AA@ 1002b588     LIBCMT:winapinls.obj
 0002:00003590       ??_C@_17FFBJICPL@?$AAs?$AAy?$AAr?$AA?$AA@ 1002b590     LIBCMT:winapinls.obj
 0002:00003598       ??_C@_17KPNDCPAF@?$AAd?$AAi?$AAv?$AA?$AA@ 1002b598     LIBCMT:winapinls.obj
 0002:000035a0       ??_C@_11LOCGONAA@?$AA?$AA@ 1002b5a0     LIBCMT:winapinls.obj
 0002:000035a4       ??_C@_1M@OKAHONE@?$AAa?$AAr?$AA?9?$AAS?$AAA?$AA?$AA@ 1002b5a4     LIBCMT:winapinls.obj
 0002:000035b0       ??_C@_1M@FFFIGIGK@?$AAb?$AAg?$AA?9?$AAB?$AAG?$AA?$AA@ 1002b5b0     LIBCMT:winapinls.obj
 0002:000035bc       ??_C@_1M@BJNKEDC@?$AAc?$AAa?$AA?9?$AAE?$AAS?$AA?$AA@ 1002b5bc     LIBCMT:winapinls.obj
 0002:000035c8       ??_C@_1M@IJJHFJHA@?$AAc?$AAs?$AA?9?$AAC?$AAZ?$AA?$AA@ 1002b5c8     LIBCMT:winapinls.obj
 0002:000035d4       ??_C@_1M@CLPEOBGI@?$AAd?$AAa?$AA?9?$AAD?$AAK?$AA?$AA@ 1002b5d4     LIBCMT:winapinls.obj
 0002:000035e0       ??_C@_1M@MCMADGCB@?$AAd?$AAe?$AA?9?$AAD?$AAE?$AA?$AA@ 1002b5e0     LIBCMT:winapinls.obj
 0002:000035ec       ??_C@_1M@OOCKEMAM@?$AAe?$AAl?$AA?9?$AAG?$AAR?$AA?$AA@ 1002b5ec     LIBCMT:winapinls.obj
 0002:000035f8       ??_C@_1M@DDNJFGID@?$AAf?$AAi?$AA?9?$AAF?$AAI?$AA?$AA@ 1002b5f8     LIBCMT:winapinls.obj
 0002:00003604       ??_C@_1M@GLIPPMAC@?$AAf?$AAr?$AA?9?$AAF?$AAR?$AA?$AA@ 1002b604     LIBCMT:winapinls.obj
 0002:00003610       ??_C@_1M@GFMCHPE@?$AAh?$AAe?$AA?9?$AAI?$AAL?$AA?$AA@ 1002b610     LIBCMT:winapinls.obj
 0002:0000361c       ??_C@_1M@MHLPGNKM@?$AAh?$AAu?$AA?9?$AAH?$AAU?$AA?$AA@ 1002b61c     LIBCMT:winapinls.obj
 0002:00003628       ??_C@_1M@LPDDNNPN@?$AAi?$AAs?$AA?9?$AAI?$AAS?$AA?$AA@ 1002b628     LIBCMT:winapinls.obj
 0002:00003634       ??_C@_1M@MADIPODN@?$AAi?$AAt?$AA?9?$AAI?$AAT?$AA?$AA@ 1002b634     LIBCMT:winapinls.obj
 0002:00003640       ??_C@_1M@IHBJJGG@?$AAn?$AAl?$AA?9?$AAN?$AAL?$AA?$AA@ 1002b640     LIBCMT:winapinls.obj
 0002:0000364c       ??_C@_1M@EANAGDL@?$AAn?$AAb?$AA?9?$AAN?$AAO?$AA?$AA@ 1002b64c     LIBCMT:winapinls.obj
 0002:00003658       ??_C@_1M@NEIEMEGP@?$AAp?$AAl?$AA?9?$AAP?$AAL?$AA?$AA@ 1002b658     LIBCMT:winapinls.obj
 0002:00003664       ??_C@_1M@BOCFIGEP@?$AAp?$AAt?$AA?9?$AAB?$AAR?$AA?$AA@ 1002b664     LIBCMT:winapinls.obj
 0002:00003670       ??_C@_1M@IMPFOPBG@?$AAr?$AAo?$AA?9?$AAR?$AAO?$AA?$AA@ 1002b670     LIBCMT:winapinls.obj
 0002:0000367c       ??_C@_1M@IDNNEJMM@?$AAr?$AAu?$AA?9?$AAR?$AAU?$AA?$AA@ 1002b67c     LIBCMT:winapinls.obj
 0002:00003688       ??_C@_1M@LILEEOGM@?$AAh?$AAr?$AA?9?$AAH?$AAR?$AA?$AA@ 1002b688     LIBCMT:winapinls.obj
 0002:00003694       ??_C@_1M@FKIFEHPB@?$AAs?$AAk?$AA?9?$AAS?$AAK?$AA?$AA@ 1002b694     LIBCMT:winapinls.obj
 0002:000036a0       ??_C@_1M@LJMAMNPJ@?$AAs?$AAq?$AA?9?$AAA?$AAL?$AA?$AA@ 1002b6a0     LIBCMT:winapinls.obj
 0002:000036ac       ??_C@_1M@GIAKDKJK@?$AAs?$AAv?$AA?9?$AAS?$AAE?$AA?$AA@ 1002b6ac     LIBCMT:winapinls.obj
 0002:000036b8       ??_C@_1M@MKJKIKCL@?$AAt?$AAh?$AA?9?$AAT?$AAH?$AA?$AA@ 1002b6b8     LIBCMT:winapinls.obj
 0002:000036c4       ??_C@_1M@MFLCCMPB@?$AAt?$AAr?$AA?9?$AAT?$AAR?$AA?$AA@ 1002b6c4     LIBCMT:winapinls.obj
 0002:000036d0       ??_C@_1M@OIJHDKJN@?$AAu?$AAr?$AA?9?$AAP?$AAK?$AA?$AA@ 1002b6d0     LIBCMT:winapinls.obj
 0002:000036dc       ??_C@_1M@LHIPCIEK@?$AAi?$AAd?$AA?9?$AAI?$AAD?$AA?$AA@ 1002b6dc     LIBCMT:winapinls.obj
 0002:000036e8       ??_C@_1M@MFMOBGI@?$AAu?$AAk?$AA?9?$AAU?$AAA?$AA?$AA@ 1002b6e8     LIBCMT:winapinls.obj
 0002:000036f4       ??_C@_1M@OBGLJIPL@?$AAb?$AAe?$AA?9?$AAB?$AAY?$AA?$AA@ 1002b6f4     LIBCMT:winapinls.obj
 0002:00003700       ??_C@_1M@BCFAJEAD@?$AAs?$AAl?$AA?9?$AAS?$AAI?$AA?$AA@ 1002b700     LIBCMT:winapinls.obj
 0002:0000370c       ??_C@_1M@FKFFEDDN@?$AAe?$AAt?$AA?9?$AAE?$AAE?$AA?$AA@ 1002b70c     LIBCMT:winapinls.obj
 0002:00003718       ??_C@_1M@KGKKAACI@?$AAl?$AAv?$AA?9?$AAL?$AAV?$AA?$AA@ 1002b718     LIBCMT:winapinls.obj
 0002:00003724       ??_C@_1M@IFGBIJO@?$AAl?$AAt?$AA?9?$AAL?$AAT?$AA?$AA@ 1002b724     LIBCMT:winapinls.obj
 0002:00003730       ??_C@_1M@FGEAHEDM@?$AAf?$AAa?$AA?9?$AAI?$AAR?$AA?$AA@ 1002b730     LIBCMT:winapinls.obj
 0002:0000373c       ??_C@_1M@KBMAIBFN@?$AAv?$AAi?$AA?9?$AAV?$AAN?$AA?$AA@ 1002b73c     LIBCMT:winapinls.obj
 0002:00003748       ??_C@_1M@GPCBKDJK@?$AAh?$AAy?$AA?9?$AAA?$AAM?$AA?$AA@ 1002b748     LIBCMT:winapinls.obj
 0002:00003754       ??_C@_1BG@BECMDDJB@?$AAa?$AAz?$AA?9?$AAA?$AAZ?$AA?9?$AAL?$AAa?$AAt?$AAn?$AA?$AA@ 1002b754     LIBCMT:winapinls.obj
 0002:0000376c       ??_C@_1M@MAOFCAEA@?$AAe?$AAu?$AA?9?$AAE?$AAS?$AA?$AA@ 1002b76c     LIBCMT:winapinls.obj
 0002:00003778       ??_C@_1M@IGHABKPI@?$AAm?$AAk?$AA?9?$AAM?$AAK?$AA?$AA@ 1002b778     LIBCMT:winapinls.obj
 0002:00003784       ??_C@_1M@IAIGNEJG@?$AAt?$AAn?$AA?9?$AAZ?$AAA?$AA?$AA@ 1002b784     LIBCMT:winapinls.obj
 0002:00003790       ??_C@_1M@IIJCOJFA@?$AAx?$AAh?$AA?9?$AAZ?$AAA?$AA?$AA@ 1002b790     LIBCMT:winapinls.obj
 0002:0000379c       ??_C@_1M@LGPJHNJH@?$AAz?$AAu?$AA?9?$AAZ?$AAA?$AA?$AA@ 1002b79c     LIBCMT:winapinls.obj
 0002:000037a8       ??_C@_1M@HOKAOIO@?$AAa?$AAf?$AA?9?$AAZ?$AAA?$AA?$AA@ 1002b7a8     LIBCMT:winapinls.obj
 0002:000037b4       ??_C@_1M@DPCLHLIE@?$AAk?$AAa?$AA?9?$AAG?$AAE?$AA?$AA@ 1002b7b4     LIBCMT:winapinls.obj
 0002:000037c0       ??_C@_1M@BLKMHJBI@?$AAf?$AAo?$AA?9?$AAF?$AAO?$AA?$AA@ 1002b7c0     LIBCMT:winapinls.obj
 0002:000037cc       ??_C@_1M@LGGJAPPB@?$AAh?$AAi?$AA?9?$AAI?$AAN?$AA?$AA@ 1002b7cc     LIBCMT:winapinls.obj
 0002:000037d8       ??_C@_1M@FIKPIHFE@?$AAm?$AAt?$AA?9?$AAM?$AAT?$AA?$AA@ 1002b7d8     LIBCMT:winapinls.obj
 0002:000037e4       ??_C@_1M@HEGGPBFA@?$AAs?$AAe?$AA?9?$AAN?$AAO?$AA?$AA@ 1002b7e4     LIBCMT:winapinls.obj
 0002:000037f0       ??_C@_1M@EIBJEEPA@?$AAm?$AAs?$AA?9?$AAM?$AAY?$AA?$AA@ 1002b7f0     LIBCMT:winapinls.obj
 0002:000037fc       ??_C@_1M@FHLBGMPP@?$AAk?$AAk?$AA?9?$AAK?$AAZ?$AA?$AA@ 1002b7fc     LIBCMT:winapinls.obj
 0002:00003808       ??_C@_1M@NGJJLCGI@?$AAk?$AAy?$AA?9?$AAK?$AAG?$AA?$AA@ 1002b808     LIBCMT:winapinls.obj
 0002:00003814       ??_C@_1M@GIENNBFC@?$AAs?$AAw?$AA?9?$AAK?$AAE?$AA?$AA@ 1002b814     LIBCMT:winapinls.obj
 0002:00003820       ??_C@_1BG@NDGMJIMJ@?$AAu?$AAz?$AA?9?$AAU?$AAZ?$AA?9?$AAL?$AAa?$AAt?$AAn?$AA?$AA@ 1002b820     LIBCMT:winapinls.obj
 0002:00003838       ??_C@_1M@IDCCIHBC@?$AAt?$AAt?$AA?9?$AAR?$AAU?$AA?$AA@ 1002b838     LIBCMT:winapinls.obj
 0002:00003844       ??_C@_1M@LOICPMOJ@?$AAb?$AAn?$AA?9?$AAI?$AAN?$AA?$AA@ 1002b844     LIBCMT:winapinls.obj
 0002:00003850       ??_C@_1M@KPKKNEAH@?$AAp?$AAa?$AA?9?$AAI?$AAN?$AA?$AA@ 1002b850     LIBCMT:winapinls.obj
 0002:0000385c       ??_C@_1M@PJGPPBOG@?$AAg?$AAu?$AA?9?$AAI?$AAN?$AA?$AA@ 1002b85c     LIBCMT:winapinls.obj
 0002:00003868       ??_C@_1M@KMKMOPHI@?$AAt?$AAa?$AA?9?$AAI?$AAN?$AA?$AA@ 1002b868     LIBCMT:winapinls.obj
 0002:00003874       ??_C@_1M@KFEHEPAC@?$AAt?$AAe?$AA?9?$AAI?$AAN?$AA?$AA@ 1002b874     LIBCMT:winapinls.obj
 0002:00003880       ??_C@_1M@CDCLMGHI@?$AAk?$AAn?$AA?9?$AAI?$AAN?$AA?$AA@ 1002b880     LIBCMT:winapinls.obj
 0002:0000388c       ??_C@_1M@MIODLDKF@?$AAm?$AAl?$AA?9?$AAI?$AAN?$AA?$AA@ 1002b88c     LIBCMT:winapinls.obj
 0002:00003898       ??_C@_1M@PBIEACPO@?$AAm?$AAr?$AA?9?$AAI?$AAN?$AA?$AA@ 1002b898     LIBCMT:winapinls.obj
 0002:000038a4       ??_C@_1M@NIDEAGPH@?$AAs?$AAa?$AA?9?$AAI?$AAN?$AA?$AA@ 1002b8a4     LIBCMT:winapinls.obj
 0002:000038b0       ??_C@_1M@FHIHCBIO@?$AAm?$AAn?$AA?9?$AAM?$AAN?$AA?$AA@ 1002b8b0     LIBCMT:winapinls.obj
 0002:000038bc       ??_C@_1M@JAIJPENP@?$AAc?$AAy?$AA?9?$AAG?$AAB?$AA?$AA@ 1002b8bc     LIBCMT:winapinls.obj
 0002:000038c8       ??_C@_1M@PHGFBEPN@?$AAg?$AAl?$AA?9?$AAE?$AAS?$AA?$AA@ 1002b8c8     LIBCMT:winapinls.obj
 0002:000038d4       ??_C@_1O@KPIPDNCP@?$AAk?$AAo?$AAk?$AA?9?$AAI?$AAN?$AA?$AA@ 1002b8d4     LIBCMT:winapinls.obj
 0002:000038e4       ??_C@_1O@KNHJLDJA@?$AAs?$AAy?$AAr?$AA?9?$AAS?$AAY?$AA?$AA@ 1002b8e4     LIBCMT:winapinls.obj
 0002:000038f4       ??_C@_1O@MKEKBLAH@?$AAd?$AAi?$AAv?$AA?9?$AAM?$AAV?$AA?$AA@ 1002b8f4     LIBCMT:winapinls.obj
 0002:00003904       ??_C@_1O@OHDCKDDF@?$AAq?$AAu?$AAz?$AA?9?$AAB?$AAO?$AA?$AA@ 1002b904     LIBCMT:winapinls.obj
 0002:00003914       ??_C@_1M@LEPJNLFD@?$AAn?$AAs?$AA?9?$AAZ?$AAA?$AA?$AA@ 1002b914     LIBCMT:winapinls.obj
 0002:00003920       ??_C@_1M@OMLEIIJB@?$AAm?$AAi?$AA?9?$AAN?$AAZ?$AA?$AA@ 1002b920     LIBCMT:winapinls.obj
 0002:0000392c       ??_C@_1M@PMPEAILG@?$AAa?$AAr?$AA?9?$AAI?$AAQ?$AA?$AA@ 1002b92c     LIBCMT:winapinls.obj
 0002:00003938       ??_C@_1M@CNKPNOEE@?$AAd?$AAe?$AA?9?$AAC?$AAH?$AA?$AA@ 1002b938     LIBCMT:winapinls.obj
 0002:00003944       ??_C@_1M@LKMGMLKO@?$AAe?$AAn?$AA?9?$AAG?$AAB?$AA?$AA@ 1002b944     LIBCMT:winapinls.obj
 0002:00003950       ??_C@_1M@PGKJFFGL@?$AAe?$AAs?$AA?9?$AAM?$AAX?$AA?$AA@ 1002b950     LIBCMT:winapinls.obj
 0002:0000395c       ??_C@_1M@DNNANBDC@?$AAf?$AAr?$AA?9?$AAB?$AAE?$AA?$AA@ 1002b95c     LIBCMT:winapinls.obj
 0002:00003968       ??_C@_1M@HLGMDFHM@?$AAi?$AAt?$AA?9?$AAC?$AAH?$AA?$AA@ 1002b968     LIBCMT:winapinls.obj
 0002:00003974       ??_C@_1M@CLLBGJH@?$AAn?$AAl?$AA?9?$AAB?$AAE?$AA?$AA@ 1002b974     LIBCMT:winapinls.obj
 0002:00003980       ??_C@_1M@BODBOGLF@?$AAn?$AAn?$AA?9?$AAN?$AAO?$AA?$AA@ 1002b980     LIBCMT:winapinls.obj
 0002:0000398c       ??_C@_1M@HFFAHKAD@?$AAp?$AAt?$AA?9?$AAP?$AAT?$AA?$AA@ 1002b98c     LIBCMT:winapinls.obj
 0002:00003998       ??_C@_1BG@LNOAKHIE@?$AAs?$AAr?$AA?9?$AAS?$AAP?$AA?9?$AAL?$AAa?$AAt?$AAn?$AA?$AA@ 1002b998     LIBCMT:winapinls.obj
 0002:000039b0       ??_C@_1M@HBMHBGAK@?$AAs?$AAv?$AA?9?$AAF?$AAI?$AA?$AA@ 1002b9b0     LIBCMT:winapinls.obj
 0002:000039bc       ??_C@_1BG@DGCJGJBE@?$AAa?$AAz?$AA?9?$AAA?$AAZ?$AA?9?$AAC?$AAy?$AAr?$AAl?$AA?$AA@ 1002b9bc     LIBCMT:winapinls.obj
 0002:000039d4       ??_C@_1M@KEJDAAHB@?$AAs?$AAe?$AA?9?$AAS?$AAE?$AA?$AA@ 1002b9d4     LIBCMT:winapinls.obj
 0002:000039e0       ??_C@_1M@HEIBJJAD@?$AAm?$AAs?$AA?9?$AAB?$AAN?$AA?$AA@ 1002b9e0     LIBCMT:winapinls.obj
 0002:000039ec       ??_C@_1BG@PBGJMCEM@?$AAu?$AAz?$AA?9?$AAU?$AAZ?$AA?9?$AAC?$AAy?$AAr?$AAl?$AA?$AA@ 1002b9ec     LIBCMT:winapinls.obj
 0002:00003a04       ??_C@_1O@LAOBCMDF@?$AAq?$AAu?$AAz?$AA?9?$AAE?$AAC?$AA?$AA@ 1002ba04     LIBCMT:winapinls.obj
 0002:00003a14       ??_C@_1M@POEEMAIO@?$AAa?$AAr?$AA?9?$AAE?$AAG?$AA?$AA@ 1002ba14     LIBCMT:winapinls.obj
 0002:00003a20       ??_C@_1M@EFAKDEDL@?$AAz?$AAh?$AA?9?$AAH?$AAK?$AA?$AA@ 1002ba20     LIBCMT:winapinls.obj
 0002:00003a2c       ??_C@_1M@HKKIJHGI@?$AAd?$AAe?$AA?9?$AAA?$AAT?$AA?$AA@ 1002ba2c     LIBCMT:winapinls.obj
 0002:00003a38       ??_C@_1M@KBFBEHJF@?$AAe?$AAn?$AA?9?$AAA?$AAU?$AA?$AA@ 1002ba38     LIBCMT:winapinls.obj
 0002:00003a44       ??_C@_1M@MNPLFAAH@?$AAe?$AAs?$AA?9?$AAE?$AAS?$AA?$AA@ 1002ba44     LIBCMT:winapinls.obj
 0002:00003a50       ??_C@_1M@HJOOJFMA@?$AAf?$AAr?$AA?9?$AAC?$AAA?$AA?$AA@ 1002ba50     LIBCMT:winapinls.obj
 0002:00003a5c       ??_C@_1BG@JPOFPNAB@?$AAs?$AAr?$AA?9?$AAS?$AAP?$AA?9?$AAC?$AAy?$AAr?$AAl?$AA?$AA@ 1002ba5c     LIBCMT:winapinls.obj
 0002:00003a74       ??_C@_1M@LNFOCMOB@?$AAs?$AAe?$AA?9?$AAF?$AAI?$AA?$AA@ 1002ba74     LIBCMT:winapinls.obj
 0002:00003a80       ??_C@_1O@MGJBOAMB@?$AAq?$AAu?$AAz?$AA?9?$AAP?$AAE?$AA?$AA@ 1002ba80     LIBCMT:winapinls.obj
 0002:00003a90       ??_C@_1M@GJINLBOK@?$AAa?$AAr?$AA?9?$AAL?$AAY?$AA?$AA@ 1002ba90     LIBCMT:winapinls.obj
 0002:00003a9c       ??_C@_1M@GGMNHJNL@?$AAz?$AAh?$AA?9?$AAS?$AAG?$AA?$AA@ 1002ba9c     LIBCMT:winapinls.obj
 0002:00003aa8       ??_C@_1M@HOIKODND@?$AAd?$AAe?$AA?9?$AAL?$AAU?$AA?$AA@ 1002baa8     LIBCMT:winapinls.obj
 0002:00003ab4       ??_C@_1M@DDOCCGFG@?$AAe?$AAn?$AA?9?$AAC?$AAA?$AA?$AA@ 1002bab4     LIBCMT:winapinls.obj
 0002:00003ac0       ??_C@_1M@BNOEMJLF@?$AAe?$AAs?$AA?9?$AAG?$AAT?$AA?$AA@ 1002bac0     LIBCMT:winapinls.obj
 0002:00003acc       ??_C@_1M@EOGNKEK@?$AAf?$AAr?$AA?9?$AAC?$AAH?$AA?$AA@ 1002bacc     LIBCMT:winapinls.obj
 0002:00003ad8       ??_C@_1M@FLIDJFHL@?$AAh?$AAr?$AA?9?$AAB?$AAA?$AA?$AA@ 1002bad8     LIBCMT:winapinls.obj
 0002:00003ae4       ??_C@_1O@FMCELNAJ@?$AAs?$AAm?$AAj?$AA?9?$AAN?$AAO?$AA?$AA@ 1002bae4     LIBCMT:winapinls.obj
 0002:00003af4       ??_C@_1M@JHGLJMGJ@?$AAa?$AAr?$AA?9?$AAD?$AAZ?$AA?$AA@ 1002baf4     LIBCMT:winapinls.obj
 0002:00003b00       ??_C@_1M@JKKFDCNP@?$AAz?$AAh?$AA?9?$AAM?$AAO?$AA?$AA@ 1002bb00     LIBCMT:winapinls.obj
 0002:00003b0c       ??_C@_1M@GEEFALPE@?$AAd?$AAe?$AA?9?$AAL?$AAI?$AA?$AA@ 1002bb0c     LIBCMT:winapinls.obj
 0002:00003b18       ??_C@_1M@IGEOFBG@?$AAe?$AAn?$AA?9?$AAN?$AAZ?$AA?$AA@ 1002bb18     LIBCMT:winapinls.obj
 0002:00003b24       ??_C@_1M@KDBONEHP@?$AAe?$AAs?$AA?9?$AAC?$AAR?$AA?$AA@ 1002bb24     LIBCMT:winapinls.obj
 0002:00003b30       ??_C@_1M@FHMDOHNN@?$AAf?$AAr?$AA?9?$AAL?$AAU?$AA?$AA@ 1002bb30     LIBCMT:winapinls.obj
 0002:00003b3c       ??_C@_1BG@NFKKMAFG@?$AAb?$AAs?$AA?9?$AAB?$AAA?$AA?9?$AAL?$AAa?$AAt?$AAn?$AA?$AA@ 1002bb3c     LIBCMT:winapinls.obj
 0002:00003b54       ??_C@_1O@IMNBEMCI@?$AAs?$AAm?$AAj?$AA?9?$AAS?$AAE?$AA?$AA@ 1002bb54     LIBCMT:winapinls.obj
 0002:00003b64       ??_C@_1M@DHHMBNDP@?$AAa?$AAr?$AA?9?$AAM?$AAA?$AA?$AA@ 1002bb64     LIBCMT:winapinls.obj
 0002:00003b70       ??_C@_1M@BNBLJCGH@?$AAe?$AAn?$AA?9?$AAI?$AAE?$AA?$AA@ 1002bb70     LIBCMT:winapinls.obj
 0002:00003b7c       ??_C@_1M@GEPAFMDL@?$AAe?$AAs?$AA?9?$AAP?$AAA?$AA?$AA@ 1002bb7c     LIBCMT:winapinls.obj
 0002:00003b88       ??_C@_1M@OJONDMDL@?$AAf?$AAr?$AA?9?$AAM?$AAC?$AA?$AA@ 1002bb88     LIBCMT:winapinls.obj
 0002:00003b94       ??_C@_1BG@OBCNFJB@?$AAs?$AAr?$AA?9?$AAB?$AAA?$AA?9?$AAL?$AAa?$AAt?$AAn?$AA?$AA@ 1002bb94     LIBCMT:winapinls.obj
 0002:00003bac       ??_C@_1O@KEMEEGPO@?$AAs?$AAm?$AAa?$AA?9?$AAN?$AAO?$AA?$AA@ 1002bbac     LIBCMT:winapinls.obj
 0002:00003bbc       ??_C@_1M@ELMGFODK@?$AAa?$AAr?$AA?9?$AAT?$AAN?$AA?$AA@ 1002bbbc     LIBCMT:winapinls.obj
 0002:00003bc8       ??_C@_1M@BHDLHFAF@?$AAe?$AAn?$AA?9?$AAZ?$AAA?$AA?$AA@ 1002bbc8     LIBCMT:winapinls.obj
 0002:00003bd4       ??_C@_1M@BMGIGLIF@?$AAe?$AAs?$AA?9?$AAD?$AAO?$AA?$AA@ 1002bbd4     LIBCMT:winapinls.obj
 0002:00003be0       ??_C@_1BG@CMBHIPBE@?$AAs?$AAr?$AA?9?$AAB?$AAA?$AA?9?$AAC?$AAy?$AAr?$AAl?$AA?$AA@ 1002bbe0     LIBCMT:winapinls.obj
 0002:00003bf8       ??_C@_1O@HEDBLHNP@?$AAs?$AAm?$AAa?$AA?9?$AAS?$AAE?$AA?$AA@ 1002bbf8     LIBCMT:winapinls.obj
 0002:00003c08       ??_C@_1M@DAGCADIM@?$AAa?$AAr?$AA?9?$AAO?$AAM?$AA?$AA@ 1002bc08     LIBCMT:winapinls.obj
 0002:00003c14       ??_C@_1M@FODLMICG@?$AAe?$AAn?$AA?9?$AAJ?$AAM?$AA?$AA@ 1002bc14     LIBCMT:winapinls.obj
 0002:00003c20       ??_C@_1M@DNMLCIHB@?$AAe?$AAs?$AA?9?$AAV?$AAE?$AA?$AA@ 1002bc20     LIBCMT:winapinls.obj
 0002:00003c2c       ??_C@_1O@EOKHMKJK@?$AAs?$AAm?$AAs?$AA?9?$AAF?$AAI?$AA?$AA@ 1002bc2c     LIBCMT:winapinls.obj
 0002:00003c3c       ??_C@_1M@CAFJMKOF@?$AAa?$AAr?$AA?9?$AAY?$AAE?$AA?$AA@ 1002bc3c     LIBCMT:winapinls.obj
 0002:00003c48       ??_C@_1M@CBFHIJLI@?$AAe?$AAn?$AA?9?$AAC?$AAB?$AA?$AA@ 1002bc48     LIBCMT:winapinls.obj
 0002:00003c54       ??_C@_1M@BGNFLDN@?$AAe?$AAs?$AA?9?$AAC?$AAO?$AA?$AA@ 1002bc54     LIBCMT:winapinls.obj
 0002:00003c60       ??_C@_1O@JMPHMAMC@?$AAs?$AAm?$AAn?$AA?9?$AAF?$AAI?$AA?$AA@ 1002bc60     LIBCMT:winapinls.obj
 0002:00003c70       ??_C@_1M@JLANABKE@?$AAa?$AAr?$AA?9?$AAS?$AAY?$AA?$AA@ 1002bc70     LIBCMT:winapinls.obj
 0002:00003c7c       ??_C@_1M@HPKGCFGN@?$AAe?$AAn?$AA?9?$AAB?$AAZ?$AA?$AA@ 1002bc7c     LIBCMT:winapinls.obj
 0002:00003c88       ??_C@_1M@OLJCMLGM@?$AAe?$AAs?$AA?9?$AAP?$AAE?$AA?$AA@ 1002bc88     LIBCMT:winapinls.obj
 0002:00003c94       ??_C@_1M@MKKGFKLE@?$AAa?$AAr?$AA?9?$AAJ?$AAO?$AA?$AA@ 1002bc94     LIBCMT:winapinls.obj
 0002:00003ca0       ??_C@_1M@EKPGLDNI@?$AAe?$AAn?$AA?9?$AAT?$AAT?$AA?$AA@ 1002bca0     LIBCMT:winapinls.obj
 0002:00003cac       ??_C@_1M@OONGHFHE@?$AAe?$AAs?$AA?9?$AAA?$AAR?$AA?$AA@ 1002bcac     LIBCMT:winapinls.obj
 0002:00003cb8       ??_C@_1M@OOJFGBHE@?$AAa?$AAr?$AA?9?$AAL?$AAB?$AA?$AA@ 1002bcb8     LIBCMT:winapinls.obj
 0002:00003cc4       ??_C@_1M@GCEJHNEG@?$AAe?$AAn?$AA?9?$AAZ?$AAW?$AA?$AA@ 1002bcc4     LIBCMT:winapinls.obj
 0002:00003cd0       ??_C@_1M@JNOCAHJI@?$AAe?$AAs?$AA?9?$AAE?$AAC?$AA?$AA@ 1002bcd0     LIBCMT:winapinls.obj
 0002:00003cdc       ??_C@_1M@JEFHPGGB@?$AAa?$AAr?$AA?9?$AAK?$AAW?$AA?$AA@ 1002bcdc     LIBCMT:winapinls.obj
 0002:00003ce8       ??_C@_1M@MLKIBJOJ@?$AAe?$AAn?$AA?9?$AAP?$AAH?$AA?$AA@ 1002bce8     LIBCMT:winapinls.obj
 0002:00003cf4       ??_C@_1M@BDNIPEND@?$AAe?$AAs?$AA?9?$AAC?$AAL?$AA?$AA@ 1002bcf4     LIBCMT:winapinls.obj
 0002:00003d00       ??_C@_1M@MPNMEKBD@?$AAa?$AAr?$AA?9?$AAA?$AAE?$AA?$AA@ 1002bd00     LIBCMT:winapinls.obj
 0002:00003d0c       ??_C@_1M@KBJALCPI@?$AAe?$AAs?$AA?9?$AAU?$AAY?$AA?$AA@ 1002bd0c     LIBCMT:winapinls.obj
 0002:00003d18       ??_C@_1M@LLCCOAGA@?$AAa?$AAr?$AA?9?$AAB?$AAH?$AA?$AA@ 1002bd18     LIBCMT:winapinls.obj
 0002:00003d24       ??_C@_1M@PBFNCDEL@?$AAe?$AAs?$AA?9?$AAP?$AAY?$AA?$AA@ 1002bd24     LIBCMT:winapinls.obj
 0002:00003d30       ??_C@_1M@EDGINPNP@?$AAa?$AAr?$AA?9?$AAQ?$AAA?$AA?$AA@ 1002bd30     LIBCMT:winapinls.obj
 0002:00003d3c       ??_C@_1M@MKDBIIJI@?$AAe?$AAs?$AA?9?$AAB?$AAO?$AA?$AA@ 1002bd3c     LIBCMT:winapinls.obj
 0002:00003d48       ??_C@_1M@CPKKEBLD@?$AAe?$AAs?$AA?9?$AAS?$AAV?$AA?$AA@ 1002bd48     LIBCMT:winapinls.obj
 0002:00003d54       ??_C@_1M@NDBGMMJL@?$AAe?$AAs?$AA?9?$AAH?$AAN?$AA?$AA@ 1002bd54     LIBCMT:winapinls.obj
 0002:00003d60       ??_C@_1M@JIJIBHDP@?$AAe?$AAs?$AA?9?$AAN?$AAI?$AA?$AA@ 1002bd60     LIBCMT:winapinls.obj
 0002:00003d6c       ??_C@_1M@CGFMKEEK@?$AAe?$AAs?$AA?9?$AAP?$AAR?$AA?$AA@ 1002bd6c     LIBCMT:winapinls.obj
 0002:00003d78       ??_C@_1O@ICJHKIIK@?$AAz?$AAh?$AA?9?$AAC?$AAH?$AAT?$AA?$AA@ 1002bd78     LIBCMT:winapinls.obj
 0002:00003d88       ??_C@_15CLNEJCE@?$AAs?$AAr?$AA?$AA@ 1002bd88     LIBCMT:winapinls.obj
 0002:00003d90       ??_C@_1M@KAHEKEIG@?$AAa?$AAf?$AA?9?$AAz?$AAa?$AA?$AA@ 1002bd90     LIBCMT:winapinls.obj
 0002:00003d9c       ??_C@_1M@GIECOABL@?$AAa?$AAr?$AA?9?$AAa?$AAe?$AA?$AA@ 1002bd9c     LIBCMT:winapinls.obj
 0002:00003da8       ??_C@_1M@BMLMEKGI@?$AAa?$AAr?$AA?9?$AAb?$AAh?$AA?$AA@ 1002bda8     LIBCMT:winapinls.obj
 0002:00003db4       ??_C@_1M@DAPFDGGB@?$AAa?$AAr?$AA?9?$AAd?$AAz?$AA?$AA@ 1002bdb4     LIBCMT:winapinls.obj
 0002:00003dc0       ??_C@_1M@FJNKGKIG@?$AAa?$AAr?$AA?9?$AAe?$AAg?$AA?$AA@ 1002bdc0     LIBCMT:winapinls.obj
 0002:00003dcc       ??_C@_1M@FLGKKCLO@?$AAa?$AAr?$AA?9?$AAi?$AAq?$AA?$AA@ 1002bdcc     LIBCMT:winapinls.obj
 0002:00003dd8       ??_C@_1M@GNDIPALM@?$AAa?$AAr?$AA?9?$AAj?$AAo?$AA?$AA@ 1002bdd8     LIBCMT:winapinls.obj
 0002:00003de4       ??_C@_1M@DDMJFMGJ@?$AAa?$AAr?$AA?9?$AAk?$AAw?$AA?$AA@ 1002bde4     LIBCMT:winapinls.obj
 0002:00003df0       ??_C@_1M@EJALMLHM@?$AAa?$AAr?$AA?9?$AAl?$AAb?$AA?$AA@ 1002bdf0     LIBCMT:winapinls.obj
 0002:00003dfc       ??_C@_1M@MOBDBLOC@?$AAa?$AAr?$AA?9?$AAl?$AAy?$AA?$AA@ 1002bdfc     LIBCMT:winapinls.obj
 0002:00003e08       ??_C@_1M@JAOCLHDH@?$AAa?$AAr?$AA?9?$AAm?$AAa?$AA?$AA@ 1002be08     LIBCMT:winapinls.obj
 0002:00003e14       ??_C@_1M@JHPMKJIE@?$AAa?$AAr?$AA?9?$AAo?$AAm?$AA?$AA@ 1002be14     LIBCMT:winapinls.obj
 0002:00003e20       ??_C@_1M@OEPGHFNH@?$AAa?$AAr?$AA?9?$AAq?$AAa?$AA?$AA@ 1002be20     LIBCMT:winapinls.obj
 0002:00003e2c       ??_C@_1M@KJDONENM@?$AAa?$AAr?$AA?9?$AAs?$AAa?$AA?$AA@ 1002be2c     LIBCMT:winapinls.obj
 0002:00003e38       ??_C@_1M@DMJDKLKM@?$AAa?$AAr?$AA?9?$AAs?$AAy?$AA?$AA@ 1002be38     LIBCMT:winapinls.obj
 0002:00003e44       ??_C@_1M@OMFIPEDC@?$AAa?$AAr?$AA?9?$AAt?$AAn?$AA?$AA@ 1002be44     LIBCMT:winapinls.obj
 0002:00003e50       ??_C@_1M@IHMHGAON@?$AAa?$AAr?$AA?9?$AAy?$AAe?$AA?$AA@ 1002be50     LIBCMT:winapinls.obj
 0002:00003e5c       ??_C@_1BG@KDCPGJGB@?$AAa?$AAz?$AA?9?$AAa?$AAz?$AA?9?$AAc?$AAy?$AAr?$AAl?$AA?$AA@ 1002be5c     LIBCMT:winapinls.obj
 0002:00003e74       ??_C@_1BG@IBCKDDOE@?$AAa?$AAz?$AA?9?$AAa?$AAz?$AA?9?$AAl?$AAa?$AAt?$AAn?$AA?$AA@ 1002be74     LIBCMT:winapinls.obj
 0002:00003e8c       ??_C@_1M@EGPFDCPD@?$AAb?$AAe?$AA?9?$AAb?$AAy?$AA?$AA@ 1002be8c     LIBCMT:winapinls.obj
 0002:00003e98       ??_C@_1M@PCMGMCGC@?$AAb?$AAg?$AA?9?$AAb?$AAg?$AA?$AA@ 1002be98     LIBCMT:winapinls.obj
 0002:00003ea4       ??_C@_1M@BJBMFGOB@?$AAb?$AAn?$AA?9?$AAi?$AAn?$AA?$AA@ 1002bea4     LIBCMT:winapinls.obj
 0002:00003eb0       ??_C@_1BG@EAKMMACD@?$AAb?$AAs?$AA?9?$AAb?$AAa?$AA?9?$AAl?$AAa?$AAt?$AAn?$AA?$AA@ 1002beb0     LIBCMT:winapinls.obj
 0002:00003ec8       ??_C@_1M@KGADAODK@?$AAc?$AAa?$AA?9?$AAe?$AAs?$AA?$AA@ 1002bec8     LIBCMT:winapinls.obj
 0002:00003ed4       ??_C@_1M@COAJPDHI@?$AAc?$AAs?$AA?9?$AAc?$AAz?$AA?$AA@ 1002bed4     LIBCMT:winapinls.obj
 0002:00003ee0       ??_C@_1M@DHBHFONH@?$AAc?$AAy?$AA?9?$AAg?$AAb?$AA?$AA@ 1002bee0     LIBCMT:winapinls.obj
 0002:00003eec       ??_C@_1M@IMGKELGA@?$AAd?$AAa?$AA?9?$AAd?$AAk?$AA?$AA@ 1002beec     LIBCMT:winapinls.obj
 0002:00003ef8       ??_C@_1M@NNDGDNGA@?$AAd?$AAe?$AA?9?$AAa?$AAt?$AA?$AA@ 1002bef8     LIBCMT:winapinls.obj
 0002:00003f04       ??_C@_1M@IKDBHEEM@?$AAd?$AAe?$AA?9?$AAc?$AAh?$AA?$AA@ 1002bf04     LIBCMT:winapinls.obj
 0002:00003f10       ??_C@_1M@GFFOJMCJ@?$AAd?$AAe?$AA?9?$AAd?$AAe?$AA?$AA@ 1002bf10     LIBCMT:winapinls.obj
 0002:00003f1c       ??_C@_1M@MDNLKBPM@?$AAd?$AAe?$AA?9?$AAl?$AAi?$AA?$AA@ 1002bf1c     LIBCMT:winapinls.obj
 0002:00003f28       ??_C@_1M@NJBEEJNL@?$AAd?$AAe?$AA?9?$AAl?$AAu?$AA?$AA@ 1002bf28     LIBCMT:winapinls.obj
 0002:00003f34       ??_C@_1O@GNNELBAP@?$AAd?$AAi?$AAv?$AA?9?$AAm?$AAv?$AA?$AA@ 1002bf34     LIBCMT:winapinls.obj
 0002:00003f44       ??_C@_1M@EJLEOGAE@?$AAe?$AAl?$AA?9?$AAg?$AAr?$AA?$AA@ 1002bf44     LIBCMT:winapinls.obj
 0002:00003f50       ??_C@_1M@GMPONJN@?$AAe?$AAn?$AA?9?$AAa?$AAu?$AA?$AA@ 1002bf50     LIBCMT:winapinls.obj
 0002:00003f5c       ??_C@_1M@NIDIIPGF@?$AAe?$AAn?$AA?9?$AAb?$AAz?$AA?$AA@ 1002bf5c     LIBCMT:winapinls.obj
 0002:00003f68       ??_C@_1M@JEHMIMFO@?$AAe?$AAn?$AA?9?$AAc?$AAa?$AA?$AA@ 1002bf68     LIBCMT:winapinls.obj
 0002:00003f74       ??_C@_1M@IGMJCDLA@?$AAe?$AAn?$AA?9?$AAc?$AAb?$AA?$AA@ 1002bf74     LIBCMT:winapinls.obj
 0002:00003f80       ??_C@_1M@BNFIGBKG@?$AAe?$AAn?$AA?9?$AAg?$AAb?$AA?$AA@ 1002bf80     LIBCMT:winapinls.obj
 0002:00003f8c       ??_C@_1M@LKIFDIGP@?$AAe?$AAn?$AA?9?$AAi?$AAe?$AA?$AA@ 1002bf8c     LIBCMT:winapinls.obj
 0002:00003f98       ??_C@_1M@PJKFGCCO@?$AAe?$AAn?$AA?9?$AAj?$AAm?$AA?$AA@ 1002bf98     LIBCMT:winapinls.obj
 0002:00003fa4       ??_C@_1M@KPPKEPBO@?$AAe?$AAn?$AA?9?$AAn?$AAz?$AA?$AA@ 1002bfa4     LIBCMT:winapinls.obj
 0002:00003fb0       ??_C@_1M@GMDGLDOB@?$AAe?$AAn?$AA?9?$AAp?$AAh?$AA?$AA@ 1002bfb0     LIBCMT:winapinls.obj
 0002:00003fbc       ??_C@_1M@ONGIBJNA@?$AAe?$AAn?$AA?9?$AAt?$AAt?$AA?$AA@ 1002bfbc     LIBCMT:winapinls.obj
 0002:00003fc8       ??_C@_1M@LLODPCMM@?$AAe?$AAn?$AA?9?$AAu?$AAs?$AA?$AA@ 1002bfc8     LIBCMT:winapinls.obj
 0002:00003fd4       ??_C@_1M@LAKFNPAN@?$AAe?$AAn?$AA?9?$AAz?$AAa?$AA?$AA@ 1002bfd4     LIBCMT:winapinls.obj
 0002:00003fe0       ??_C@_1M@MFNHNHEO@?$AAe?$AAn?$AA?9?$AAz?$AAw?$AA?$AA@ 1002bfe0     LIBCMT:winapinls.obj
 0002:00003fec       ??_C@_1M@EJEINPHM@?$AAe?$AAs?$AA?9?$AAa?$AAr?$AA?$AA@ 1002bfec     LIBCMT:winapinls.obj
 0002:00003ff8       ??_C@_1M@GNKPCCJA@?$AAe?$AAs?$AA?9?$AAb?$AAo?$AA?$AA@ 1002bff8     LIBCMT:winapinls.obj
 0002:00004004       ??_C@_1M@LEEGFONL@?$AAe?$AAs?$AA?9?$AAc?$AAl?$AA?$AA@ 1002c004     LIBCMT:winapinls.obj
 0002:00004010       ??_C@_1M@KGPDPBDF@?$AAe?$AAs?$AA?9?$AAc?$AAo?$AA?$AA@ 1002c010     LIBCMT:winapinls.obj
 0002:0000401c       ??_C@_1M@EIAHOHH@?$AAe?$AAs?$AA?9?$AAc?$AAr?$AA?$AA@ 1002c01c     LIBCMT:winapinls.obj
 0002:00004028       ??_C@_1M@LLPGMBIN@?$AAe?$AAs?$AA?9?$AAd?$AAo?$AA?$AA@ 1002c028     LIBCMT:winapinls.obj
 0002:00004034       ??_C@_1M@DKHMKNJA@?$AAe?$AAs?$AA?9?$AAe?$AAc?$AA?$AA@ 1002c034     LIBCMT:winapinls.obj
 0002:00004040       ??_C@_1M@GKGFPKAP@?$AAe?$AAs?$AA?9?$AAe?$AAs?$AA?$AA@ 1002c040     LIBCMT:winapinls.obj
 0002:0000404c       ??_C@_1M@LKHKGDLN@?$AAe?$AAs?$AA?9?$AAg?$AAt?$AA?$AA@ 1002c04c     LIBCMT:winapinls.obj
 0002:00004058       ??_C@_1M@HEIIGGJD@?$AAe?$AAs?$AA?9?$AAh?$AAn?$AA?$AA@ 1002c058     LIBCMT:winapinls.obj
 0002:00004064       ??_C@_1M@FBDHPPGD@?$AAe?$AAs?$AA?9?$AAm?$AAx?$AA?$AA@ 1002c064     LIBCMT:winapinls.obj
 0002:00004070       ??_C@_1M@DPAGLNDH@?$AAe?$AAs?$AA?9?$AAn?$AAi?$AA?$AA@ 1002c070     LIBCMT:winapinls.obj
 0002:0000407c       ??_C@_1M@MDGOPGDD@?$AAe?$AAs?$AA?9?$AAp?$AAa?$AA?$AA@ 1002c07c     LIBCMT:winapinls.obj
 0002:00004088       ??_C@_1M@EMAMGBGE@?$AAe?$AAs?$AA?9?$AAp?$AAe?$AA?$AA@ 1002c088     LIBCMT:winapinls.obj
 0002:00004094       ??_C@_1M@IBMCAOEC@?$AAe?$AAs?$AA?9?$AAp?$AAr?$AA?$AA@ 1002c094     LIBCMT:winapinls.obj
 0002:000040a0       ??_C@_1M@FGMDIJED@?$AAe?$AAs?$AA?9?$AAp?$AAy?$AA?$AA@ 1002c0a0     LIBCMT:winapinls.obj
 0002:000040ac       ??_C@_1M@IIDEOLLL@?$AAe?$AAs?$AA?9?$AAs?$AAv?$AA?$AA@ 1002c0ac     LIBCMT:winapinls.obj
 0002:000040b8       ??_C@_1M@GAOBIPA@?$AAe?$AAs?$AA?9?$AAu?$AAy?$AA?$AA@ 1002c0b8     LIBCMT:winapinls.obj
 0002:000040c4       ??_C@_1M@JKFFICHJ@?$AAe?$AAs?$AA?9?$AAv?$AAe?$AA?$AA@ 1002c0c4     LIBCMT:winapinls.obj
 0002:000040d0       ??_C@_1M@PNMLOJDF@?$AAe?$AAt?$AA?9?$AAe?$AAe?$AA?$AA@ 1002c0d0     LIBCMT:winapinls.obj
 0002:000040dc       ??_C@_1M@GHHLIKEI@?$AAe?$AAu?$AA?9?$AAe?$AAs?$AA?$AA@ 1002c0dc     LIBCMT:winapinls.obj
 0002:000040e8       ??_C@_1M@PBNONODE@?$AAf?$AAa?$AA?9?$AAi?$AAr?$AA?$AA@ 1002c0e8     LIBCMT:winapinls.obj
 0002:000040f4       ??_C@_1M@JEEHPMIL@?$AAf?$AAi?$AA?9?$AAf?$AAi?$AA?$AA@ 1002c0f4     LIBCMT:winapinls.obj
 0002:00004100       ??_C@_1M@LMDCNDBA@?$AAf?$AAo?$AA?9?$AAf?$AAo?$AA?$AA@ 1002c100     LIBCMT:winapinls.obj
 0002:0000410c       ??_C@_1M@JKEOHLDK@?$AAf?$AAr?$AA?9?$AAb?$AAe?$AA?$AA@ 1002c10c     LIBCMT:winapinls.obj
 0002:00004118       ??_C@_1M@NOHADPMI@?$AAf?$AAr?$AA?9?$AAc?$AAa?$AA?$AA@ 1002c118     LIBCMT:winapinls.obj
 0002:00004124       ??_C@_1M@KDHIHAEC@?$AAf?$AAr?$AA?9?$AAc?$AAh?$AA?$AA@ 1002c124     LIBCMT:winapinls.obj
 0002:00004130       ??_C@_1M@MMBBFGAK@?$AAf?$AAr?$AA?9?$AAf?$AAr?$AA?$AA@ 1002c130     LIBCMT:winapinls.obj
 0002:0000413c       ??_C@_1M@PAFNENNF@?$AAf?$AAr?$AA?9?$AAl?$AAu?$AA?$AA@ 1002c13c     LIBCMT:winapinls.obj
 0002:00004148       ??_C@_1M@EOHDJGDD@?$AAf?$AAr?$AA?9?$AAm?$AAc?$AA?$AA@ 1002c148     LIBCMT:winapinls.obj
 0002:00004154       ??_C@_1M@FAPLLOPF@?$AAg?$AAl?$AA?9?$AAe?$AAs?$AA?$AA@ 1002c154     LIBCMT:winapinls.obj
 0002:00004160       ??_C@_1M@FOPBFLOO@?$AAg?$AAu?$AA?9?$AAi?$AAn?$AA?$AA@ 1002c160     LIBCMT:winapinls.obj
 0002:0000416c       ??_C@_1M@KBMCINPM@?$AAh?$AAe?$AA?9?$AAi?$AAl?$AA?$AA@ 1002c16c     LIBCMT:winapinls.obj
 0002:00004178       ??_C@_1M@BBPHKFPJ@?$AAh?$AAi?$AA?9?$AAi?$AAn?$AA?$AA@ 1002c178     LIBCMT:winapinls.obj
 0002:00004184       ??_C@_1M@PMBNDPHD@?$AAh?$AAr?$AA?9?$AAb?$AAa?$AA?$AA@ 1002c184     LIBCMT:winapinls.obj
 0002:00004190       ??_C@_1M@BPCKOEGE@?$AAh?$AAr?$AA?9?$AAh?$AAr?$AA?$AA@ 1002c190     LIBCMT:winapinls.obj
 0002:0000419c       ??_C@_1M@GACBMHKE@?$AAh?$AAu?$AA?9?$AAh?$AAu?$AA?$AA@ 1002c19c     LIBCMT:winapinls.obj
 0002:000041a8       ??_C@_1M@MILPAJJC@?$AAh?$AAy?$AA?9?$AAa?$AAm?$AA?$AA@ 1002c1a8     LIBCMT:winapinls.obj
 0002:000041b4       ??_C@_1M@BABBICEC@?$AAi?$AAd?$AA?9?$AAi?$AAd?$AA?$AA@ 1002c1b4     LIBCMT:winapinls.obj
 0002:000041c0       ??_C@_1M@BIKNHHPF@?$AAi?$AAs?$AA?9?$AAi?$AAs?$AA?$AA@ 1002c1c0     LIBCMT:winapinls.obj
 0002:000041cc       ??_C@_1M@NMPCJPHE@?$AAi?$AAt?$AA?9?$AAc?$AAh?$AA?$AA@ 1002c1cc     LIBCMT:winapinls.obj
 0002:000041d8       ??_C@_1M@GHKGFEDF@?$AAi?$AAt?$AA?9?$AAi?$AAt?$AA?$AA@ 1002c1d8     LIBCMT:winapinls.obj
 0002:000041e4       ??_C@_1M@NIEJCJJA@?$AAj?$AAa?$AA?9?$AAj?$AAp?$AA?$AA@ 1002c1e4     LIBCMT:winapinls.obj
 0002:000041f0       ??_C@_1M@JILFNBIM@?$AAk?$AAa?$AA?9?$AAg?$AAe?$AA?$AA@ 1002c1f0     LIBCMT:winapinls.obj
 0002:000041fc       ??_C@_1M@PACPMGPH@?$AAk?$AAk?$AA?9?$AAk?$AAz?$AA?$AA@ 1002c1fc     LIBCMT:winapinls.obj
 0002:00004208       ??_C@_1M@IELFGMHA@?$AAk?$AAn?$AA?9?$AAi?$AAn?$AA?$AA@ 1002c208     LIBCMT:winapinls.obj
 0002:00004214       ??_C@_1O@IBBJHCH@?$AAk?$AAo?$AAk?$AA?9?$AAi?$AAn?$AA?$AA@ 1002c214     LIBCMT:winapinls.obj
 0002:00004224       ??_C@_1M@DMHAEOGC@?$AAk?$AAo?$AA?9?$AAk?$AAr?$AA?$AA@ 1002c224     LIBCMT:winapinls.obj
 0002:00004230       ??_C@_1M@HBAHBIGA@?$AAk?$AAy?$AA?9?$AAk?$AAg?$AA?$AA@ 1002c230     LIBCMT:winapinls.obj
 0002:0000423c       ??_C@_1M@KPMILCJG@?$AAl?$AAt?$AA?9?$AAl?$AAt?$AA?$AA@ 1002c23c     LIBCMT:winapinls.obj
 0002:00004248       ??_C@_1M@BDEKKCA@?$AAl?$AAv?$AA?9?$AAl?$AAv?$AA?$AA@ 1002c248     LIBCMT:winapinls.obj
 0002:00004254       ??_C@_1M@ELCKCCJJ@?$AAm?$AAi?$AA?9?$AAn?$AAz?$AA?$AA@ 1002c254     LIBCMT:winapinls.obj
 0002:00004260       ??_C@_1M@CBOOLAPA@?$AAm?$AAk?$AA?9?$AAm?$AAk?$AA?$AA@ 1002c260     LIBCMT:winapinls.obj
 0002:0000426c       ??_C@_1M@GPHNBJKN@?$AAm?$AAl?$AA?9?$AAi?$AAn?$AA?$AA@ 1002c26c     LIBCMT:winapinls.obj
 0002:00004278       ??_C@_1M@PABJILIG@?$AAm?$AAn?$AA?9?$AAm?$AAn?$AA?$AA@ 1002c278     LIBCMT:winapinls.obj
 0002:00004284       ??_C@_1M@FGBKKIPG@?$AAm?$AAr?$AA?9?$AAi?$AAn?$AA?$AA@ 1002c284     LIBCMT:winapinls.obj
 0002:00004290       ??_C@_1M@NDBPDDAL@?$AAm?$AAs?$AA?9?$AAb?$AAn?$AA?$AA@ 1002c290     LIBCMT:winapinls.obj
 0002:0000429c       ??_C@_1M@OPIHOOPI@?$AAm?$AAs?$AA?9?$AAm?$AAy?$AA?$AA@ 1002c29c     LIBCMT:winapinls.obj
 0002:000042a8       ??_C@_1M@PPDBCNFM@?$AAm?$AAt?$AA?9?$AAm?$AAt?$AA?$AA@ 1002c2a8     LIBCMT:winapinls.obj
 0002:000042b4       ??_C@_1M@KDJDKMDD@?$AAn?$AAb?$AA?9?$AAn?$AAo?$AA?$AA@ 1002c2b4     LIBCMT:winapinls.obj
 0002:000042c0       ??_C@_1M@KFCFLMJP@?$AAn?$AAl?$AA?9?$AAb?$AAe?$AA?$AA@ 1002c2c0     LIBCMT:winapinls.obj
 0002:000042cc       ??_C@_1M@KPOPDDGO@?$AAn?$AAl?$AA?9?$AAn?$AAl?$AA?$AA@ 1002c2cc     LIBCMT:winapinls.obj
 0002:000042d8       ??_C@_1M@LJKPEMLN@?$AAn?$AAn?$AA?9?$AAn?$AAo?$AA?$AA@ 1002c2d8     LIBCMT:winapinls.obj
 0002:000042e4       ??_C@_1M@BDGHHBFL@?$AAn?$AAs?$AA?9?$AAz?$AAa?$AA?$AA@ 1002c2e4     LIBCMT:winapinls.obj
 0002:000042f0       ??_C@_1M@IDEHOAP@?$AAp?$AAa?$AA?9?$AAi?$AAn?$AA?$AA@ 1002c2f0     LIBCMT:winapinls.obj
 0002:000042fc       ??_C@_1M@HDBKGOGH@?$AAp?$AAl?$AA?9?$AAp?$AAl?$AA?$AA@ 1002c2fc     LIBCMT:winapinls.obj
 0002:00004308       ??_C@_1M@LJLLCMEH@?$AAp?$AAt?$AA?9?$AAb?$AAr?$AA?$AA@ 1002c308     LIBCMT:winapinls.obj
 0002:00004314       ??_C@_1M@NCMONAAL@?$AAp?$AAt?$AA?9?$AAp?$AAt?$AA?$AA@ 1002c314     LIBCMT:winapinls.obj
 0002:00004320       ??_C@_1O@EAKMAJDN@?$AAq?$AAu?$AAz?$AA?9?$AAb?$AAo?$AA?$AA@ 1002c320     LIBCMT:winapinls.obj
 0002:00004330       ??_C@_1O@BHHPIGDN@?$AAq?$AAu?$AAz?$AA?9?$AAe?$AAc?$AA?$AA@ 1002c330     LIBCMT:winapinls.obj
 0002:00004340       ??_C@_1O@GBAPEKMJ@?$AAq?$AAu?$AAz?$AA?9?$AAp?$AAe?$AA?$AA@ 1002c340     LIBCMT:winapinls.obj
 0002:00004350       ??_C@_1M@CLGLEFBO@?$AAr?$AAo?$AA?9?$AAr?$AAo?$AA?$AA@ 1002c350     LIBCMT:winapinls.obj
 0002:0000435c       ??_C@_1M@CEEDODME@?$AAr?$AAu?$AA?9?$AAr?$AAu?$AA?$AA@ 1002c35c     LIBCMT:winapinls.obj
 0002:00004368       ??_C@_1M@HPKKKMPP@?$AAs?$AAa?$AA?9?$AAi?$AAn?$AA?$AA@ 1002c368     LIBCMT:winapinls.obj
 0002:00004374       ??_C@_1M@BKMAIGOJ@?$AAs?$AAe?$AA?9?$AAf?$AAi?$AA?$AA@ 1002c374     LIBCMT:winapinls.obj
 0002:00004380       ??_C@_1M@NDPIFLFI@?$AAs?$AAe?$AA?9?$AAn?$AAo?$AA?$AA@ 1002c380     LIBCMT:winapinls.obj
 0002:0000438c       ??_C@_1M@DANKKHJ@?$AAs?$AAe?$AA?9?$AAs?$AAe?$AA?$AA@ 1002c38c     LIBCMT:winapinls.obj
 0002:00004398       ??_C@_1M@PNBLONPJ@?$AAs?$AAk?$AA?9?$AAs?$AAk?$AA?$AA@ 1002c398     LIBCMT:winapinls.obj
 0002:000043a4       ??_C@_1M@LFMODOAL@?$AAs?$AAl?$AA?9?$AAs?$AAi?$AA?$AA@ 1002c3a4     LIBCMT:winapinls.obj
 0002:000043b0       ??_C@_1O@DFKOMPG@?$AAs?$AAm?$AAa?$AA?9?$AAn?$AAo?$AA?$AA@ 1002c3b0     LIBCMT:winapinls.obj
 0002:000043c0       ??_C@_1O@NDKPBNNH@?$AAs?$AAm?$AAa?$AA?9?$AAs?$AAe?$AA?$AA@ 1002c3c0     LIBCMT:winapinls.obj
 0002:000043d0       ??_C@_1O@PLLKBHAB@?$AAs?$AAm?$AAj?$AA?9?$AAn?$AAo?$AA?$AA@ 1002c3d0     LIBCMT:winapinls.obj
 0002:000043e0       ??_C@_1O@CLEPOGCA@?$AAs?$AAm?$AAj?$AA?9?$AAs?$AAe?$AA?$AA@ 1002c3e0     LIBCMT:winapinls.obj
 0002:000043f0       ??_C@_1O@DLGJGKMK@?$AAs?$AAm?$AAn?$AA?9?$AAf?$AAi?$AA?$AA@ 1002c3f0     LIBCMT:winapinls.obj
 0002:00004400       ??_C@_1O@OJDJGAJC@?$AAs?$AAm?$AAs?$AA?9?$AAf?$AAi?$AA?$AA@ 1002c400     LIBCMT:winapinls.obj
 0002:00004410       ??_C@_1M@BOFOGHPB@?$AAs?$AAq?$AA?9?$AAa?$AAl?$AA?$AA@ 1002c410     LIBCMT:winapinls.obj
 0002:0000441c       ??_C@_1BG@LJBBIPGB@?$AAs?$AAr?$AA?9?$AAb?$AAa?$AA?9?$AAc?$AAy?$AAr?$AAl?$AA?$AA@ 1002c41c     LIBCMT:winapinls.obj
 0002:00004434       ??_C@_1BG@JLBENFOE@?$AAs?$AAr?$AA?9?$AAb?$AAa?$AA?9?$AAl?$AAa?$AAt?$AAn?$AA?$AA@ 1002c434     LIBCMT:winapinls.obj
 0002:0000444c       ??_C@_1BG@KODPNHE@?$AAs?$AAr?$AA?9?$AAs?$AAp?$AA?9?$AAc?$AAy?$AAr?$AAl?$AA?$AA@ 1002c44c     LIBCMT:winapinls.obj
 0002:00004464       ??_C@_1BG@CIOGKHPB@?$AAs?$AAr?$AA?9?$AAs?$AAp?$AA?9?$AAl?$AAa?$AAt?$AAn?$AA?$AA@ 1002c464     LIBCMT:winapinls.obj
 0002:0000447c       ??_C@_1M@NGFJLMAC@?$AAs?$AAv?$AA?9?$AAf?$AAi?$AA?$AA@ 1002c47c     LIBCMT:winapinls.obj
 0002:00004488       ??_C@_1M@MPJEJAJC@?$AAs?$AAv?$AA?9?$AAs?$AAe?$AA?$AA@ 1002c488     LIBCMT:winapinls.obj
 0002:00004494       ??_C@_1M@MPNDHLFK@?$AAs?$AAw?$AA?9?$AAk?$AAe?$AA?$AA@ 1002c494     LIBCMT:winapinls.obj
 0002:000044a0       ??_C@_1O@KOHBJJI@?$AAs?$AAy?$AAr?$AA?9?$AAs?$AAy?$AA?$AA@ 1002c4a0     LIBCMT:winapinls.obj
 0002:000044b0       ??_C@_1M@LDCEFHA@?$AAt?$AAa?$AA?9?$AAi?$AAn?$AA?$AA@ 1002c4b0     LIBCMT:winapinls.obj
 0002:000044bc       ??_C@_1M@CNJOFAK@?$AAt?$AAe?$AA?9?$AAi?$AAn?$AA?$AA@ 1002c4bc     LIBCMT:winapinls.obj
 0002:000044c8       ??_C@_1M@GNAECACD@?$AAt?$AAh?$AA?9?$AAt?$AAh?$AA?$AA@ 1002c4c8     LIBCMT:winapinls.obj
 0002:000044d4       ??_C@_1M@CHBIHOJO@?$AAt?$AAn?$AA?9?$AAz?$AAa?$AA?$AA@ 1002c4d4     LIBCMT:winapinls.obj
 0002:000044e0       ??_C@_1M@GCCMIGPJ@?$AAt?$AAr?$AA?9?$AAt?$AAr?$AA?$AA@ 1002c4e0     LIBCMT:winapinls.obj
 0002:000044ec       ??_C@_1M@CELMCNBK@?$AAt?$AAt?$AA?9?$AAr?$AAu?$AA?$AA@ 1002c4ec     LIBCMT:winapinls.obj
 0002:000044f8       ??_C@_1M@KLMCELGA@?$AAu?$AAk?$AA?9?$AAu?$AAa?$AA?$AA@ 1002c4f8     LIBCMT:winapinls.obj
 0002:00004504       ??_C@_1M@EPAJJAJF@?$AAu?$AAr?$AA?9?$AAp?$AAk?$AA?$AA@ 1002c504     LIBCMT:winapinls.obj
 0002:00004510       ??_C@_1BG@GEGPMCDJ@?$AAu?$AAz?$AA?9?$AAu?$AAz?$AA?9?$AAc?$AAy?$AAr?$AAl?$AA?$AA@ 1002c510     LIBCMT:winapinls.obj
 0002:00004528       ??_C@_1BG@EGGKJILM@?$AAu?$AAz?$AA?9?$AAu?$AAz?$AA?9?$AAl?$AAa?$AAt?$AAn?$AA?$AA@ 1002c528     LIBCMT:winapinls.obj
 0002:00004540       ??_C@_1M@GFOCLFF@?$AAv?$AAi?$AA?9?$AAv?$AAn?$AA?$AA@ 1002c540     LIBCMT:winapinls.obj
 0002:0000454c       ??_C@_1M@CPAMEDFI@?$AAx?$AAh?$AA?9?$AAz?$AAa?$AA?$AA@ 1002c54c     LIBCMT:winapinls.obj
 0002:00004558       ??_C@_1O@EBKIFIGN@?$AAz?$AAh?$AA?9?$AAc?$AAh?$AAs?$AA?$AA@ 1002c558     LIBCMT:winapinls.obj
 0002:00004568       ??_C@_1O@NMHPGANE@?$AAz?$AAh?$AA?9?$AAc?$AAh?$AAt?$AA?$AA@ 1002c568     LIBCMT:winapinls.obj
 0002:00004578       ??_C@_1M@LPINJOMC@?$AAz?$AAh?$AA?9?$AAc?$AAn?$AA?$AA@ 1002c578     LIBCMT:winapinls.obj
 0002:00004584       ??_C@_1M@OCJEJODD@?$AAz?$AAh?$AA?9?$AAh?$AAk?$AA?$AA@ 1002c584     LIBCMT:winapinls.obj
 0002:00004590       ??_C@_1M@DNDLJINH@?$AAz?$AAh?$AA?9?$AAm?$AAo?$AA?$AA@ 1002c590     LIBCMT:winapinls.obj
 0002:0000459c       ??_C@_1M@MBFDNDND@?$AAz?$AAh?$AA?9?$AAs?$AAg?$AA?$AA@ 1002c59c     LIBCMT:winapinls.obj
 0002:000045a8       ??_C@_1M@IMEPLEPE@?$AAz?$AAh?$AA?9?$AAt?$AAw?$AA?$AA@ 1002c5a8     LIBCMT:winapinls.obj
 0002:000045b4       ??_C@_1M@BBGHNHJP@?$AAz?$AAu?$AA?9?$AAz?$AAa?$AA?$AA@ 1002c5b4     LIBCMT:winapinls.obj
 0002:000045c0       __indefinite               1002c5c0     LIBCMT:87disp.obj
 0002:000045ca       __piby2                    1002c5ca     LIBCMT:87disp.obj
 0002:000045f8       __DEFAULT_CW_in_mem        1002c5f8     LIBCMT:common.obj
 0002:000045fa       __pi_by_2_to_61            1002c5fa     LIBCMT:common.obj
 0002:00004638       ___newctype                1002c638     LIBCMT:ctype.obj
 0002:00004938       __wctype                   1002c938     LIBCMT:ctype.obj
 0002:00004b40       ___newclmap                1002cb40     LIBCMT:ctype.obj
 0002:00004cc0       ___newcumap                1002ccc0     LIBCMT:ctype.obj
 0002:00004e40       ___rg_language_count       1002ce40     LIBCMT:getqloc.obj
 0002:00004e44       ___rg_country_count        1002ce44     LIBCMT:getqloc.obj
 0002:00004e48       ___lookuptable_s           1002ce48     LIBCMT:outputs.obj
 0002:00005034       ??_C@_08EHJDFFNH@__based?$CI?$AA@ 1002d034     LIBCMT:undname.obj
 0002:00005040       ??_C@_07KOLFKCDI@__cdecl?$AA@ 1002d040     LIBCMT:undname.obj
 0002:00005048       ??_C@_08GHMPAG@__pascal?$AA@ 1002d048     LIBCMT:undname.obj
 0002:00005054       ??_C@_09IFJBGAPI@__stdcall?$AA@ 1002d054     LIBCMT:undname.obj
 0002:00005060       ??_C@_0L@NPHFGOKO@__thiscall?$AA@ 1002d060     LIBCMT:undname.obj
 0002:0000506c       ??_C@_0L@JMKHOMEK@__fastcall?$AA@ 1002d06c     LIBCMT:undname.obj
 0002:00005078       ??_C@_0N@BCKKPABJ@__vectorcall?$AA@ 1002d078     LIBCMT:undname.obj
 0002:00005088       ??_C@_09HIJEGCPM@__clrcall?$AA@ 1002d088     LIBCMT:undname.obj
 0002:00005094       ??_C@_06GHPCKEAG@__eabi?$AA@ 1002d094     LIBCMT:undname.obj
 0002:0000509c       ??_C@_07JOMMBBKO@__ptr64?$AA@ 1002d09c     LIBCMT:undname.obj
 0002:000050a4       ??_C@_0L@PILCLIHE@__restrict?$AA@ 1002d0a4     LIBCMT:undname.obj
 0002:000050b0       ??_C@_0M@GFIIJFMG@__unaligned?$AA@ 1002d0b0     LIBCMT:undname.obj
 0002:000050bc       ??_C@_09DHDLOLLB@restrict?$CI?$AA@ 1002d0bc     LIBCMT:undname.obj
 0002:000050c6       ??_C@_00CNPNBAHC@?$AA@     1002d0c6     LIBCMT:undname.obj
 0002:000050c8       ??_C@_04NIHEBCM@?5new?$AA@ 1002d0c8     LIBCMT:undname.obj
 0002:000050d0       ??_C@_07FPCDHGMM@?5delete?$AA@ 1002d0d0     LIBCMT:undname.obj
 0002:000050d8       ??_C@_01NEMOKFLO@?$DN?$AA@ 1002d0d8     LIBCMT:undname.obj
 0002:000050dc       ??_C@_02GPIOPFAK@?$DO?$DO?$AA@ 1002d0dc     LIBCMT:undname.obj
 0002:000050e0       ??_C@_02FODMEDOG@?$DM?$DM?$AA@ 1002d0e0     LIBCMT:undname.obj
 0002:000050e4       ??_C@_01DCLJPIOD@?$CB?$AA@ 1002d0e4     LIBCMT:undname.obj
 0002:000050e8       ??_C@_02EGOFBIJA@?$DN?$DN?$AA@ 1002d0e8     LIBCMT:undname.obj
 0002:000050ec       ??_C@_02FDNJECIE@?$CB?$DN?$AA@ 1002d0ec     LIBCMT:undname.obj
 0002:000050f0       ??_C@_02GPECMEKF@?$FL?$FN?$AA@ 1002d0f0     LIBCMT:undname.obj
 0002:000050f4       ??_C@_08LHJFAFGD@operator?$AA@ 1002d0f4     LIBCMT:undname.obj
 0002:00005100       ??_C@_02HBOOOICD@?9?$DO?$AA@ 1002d100     LIBCMT:undname.obj
 0002:00005104       ??_C@_01NBENCBCI@?$CK?$AA@ 1002d104     LIBCMT:undname.obj
 0002:00005108       ??_C@_02ECNGHCIF@?$CL?$CL?$AA@ 1002d108     LIBCMT:undname.obj
 0002:0000510c       ??_C@_02BAABKJLB@?9?9?$AA@ 1002d10c     LIBCMT:undname.obj
 0002:00005110       ??_C@_01JOAMLHOP@?9?$AA@   1002d110     LIBCMT:undname.obj
 0002:00005114       ??_C@_01MIFGBAGJ@?$CL?$AA@ 1002d114     LIBCMT:undname.obj
 0002:00005118       ??_C@_01HNPIGOCE@?$CG?$AA@ 1002d118     LIBCMT:undname.obj
 0002:0000511c       ??_C@_03MNHNFDLC@?9?$DO?$CK?$AA@ 1002d11c     LIBCMT:undname.obj
 0002:00005120       ??_C@_01KMDKNFGN@?1?$AA@   1002d120     LIBCMT:undname.obj
 0002:00005124       ??_C@_01FGNFDNOH@?$CF?$AA@ 1002d124     LIBCMT:undname.obj
 0002:00005128       ??_C@_01MNNFJEPP@?$DM?$AA@ 1002d128     LIBCMT:undname.obj
 0002:0000512c       ??_C@_02EHCHHCKH@?$DM?$DN?$AA@ 1002d12c     LIBCMT:undname.obj
 0002:00005130       ??_C@_01PPODPGHN@?$DO?$AA@ 1002d130     LIBCMT:undname.obj
 0002:00005134       ??_C@_02EEKDKGMJ@?$DO?$DN?$AA@ 1002d134     LIBCMT:undname.obj
 0002:00005138       ??_C@_01IHBHIGKO@?0?$AA@   1002d138     LIBCMT:undname.obj
 0002:0000513c       ??_C@_02HCKGKOFO@?$CI?$CJ?$AA@ 1002d13c     LIBCMT:undname.obj
 0002:00005140       ??_C@_01PJKLJHI@?$HO?$AA@  1002d140     LIBCMT:undname.obj
 0002:00005144       ??_C@_01JKBOJNNK@?$FO?$AA@ 1002d144     LIBCMT:undname.obj
 0002:00005148       ??_C@_01DNKMNLPK@?$HM?$AA@ 1002d148     LIBCMT:undname.obj
 0002:0000514c       ??_C@_02PPKAJPJL@?$CG?$CG?$AA@ 1002d14c     LIBCMT:undname.obj
 0002:00005150       ??_C@_02NONPIBCD@?$HM?$HM?$AA@ 1002d150     LIBCMT:undname.obj
 0002:00005154       ??_C@_02FPIMKNGF@?$CK?$DN?$AA@ 1002d154     LIBCMT:undname.obj
 0002:00005158       ??_C@_02FOEOMHFC@?$CL?$DN?$AA@ 1002d158     LIBCMT:undname.obj
 0002:0000515c       ??_C@_02FKMDLLOA@?9?$DN?$AA@ 1002d15c     LIBCMT:undname.obj
 0002:00005160       ??_C@_02FJEHGPIO@?1?$DN?$AA@ 1002d160     LIBCMT:undname.obj
 0002:00005164       ??_C@_02FENAOKFI@?$CF?$DN?$AA@ 1002d164     LIBCMT:undname.obj
 0002:00005168       ??_C@_03IKFCCPFF@?$DO?$DO?$DN?$AA@ 1002d168     LIBCMT:undname.obj
 0002:0000516c       ??_C@_03CDNPDDLA@?$DM?$DM?$DN?$AA@ 1002d16c     LIBCMT:undname.obj
 0002:00005170       ??_C@_02FGJGFEAB@?$CG?$DN?$AA@ 1002d170     LIBCMT:undname.obj
 0002:00005174       ??_C@_02DHLNPPGH@?$HM?$DN?$AA@ 1002d174     LIBCMT:undname.obj
 0002:00005178       ??_C@_02MHEGNOJ@?$FO?$DN?$AA@ 1002d178     LIBCMT:undname.obj
 0002:0000517c       ??_C@_09IFPLHPGF@?$GAvftable?8?$AA@ 1002d17c     LIBCMT:undname.obj
 0002:00005188       ??_C@_09BLBHBJP@?$GAvbtable?8?$AA@ 1002d188     LIBCMT:undname.obj
 0002:00005194       ??_C@_07FEEIOKP@?$GAvcall?8?$AA@ 1002d194     LIBCMT:undname.obj
 0002:0000519c       ??_C@_08LLFFHHDJ@?$GAtypeof?8?$AA@ 1002d19c     LIBCMT:undname.obj
 0002:000051a8       ??_C@_0BF@KDPPACIK@?$GAlocal?5static?5guard?8?$AA@ 1002d1a8     LIBCMT:undname.obj
 0002:000051c0       ??_C@_08OBABFOLI@?$GAstring?8?$AA@ 1002d1c0     LIBCMT:undname.obj
 0002:000051cc       ??_C@_0BD@JDLKDPAB@?$GAvbase?5destructor?8?$AA@ 1002d1cc     LIBCMT:undname.obj
 0002:000051e0       ??_C@_0BN@DEGPLNFK@?$GAvector?5deleting?5destructor?8?$AA@ 1002d1e0     LIBCMT:undname.obj
 0002:00005200       ??_C@_0BO@OBMKPJIG@?$GAdefault?5constructor?5closure?8?$AA@ 1002d200     LIBCMT:undname.obj
 0002:00005220       ??_C@_0BN@IMDCHIKM@?$GAscalar?5deleting?5destructor?8?$AA@ 1002d220     LIBCMT:undname.obj
 0002:00005240       ??_C@_0BO@PFGOCPJJ@?$GAvector?5constructor?5iterator?8?$AA@ 1002d240     LIBCMT:undname.obj
 0002:00005260       ??_C@_0BN@LFPFMEDL@?$GAvector?5destructor?5iterator?8?$AA@ 1002d260     LIBCMT:undname.obj
 0002:00005280       ??_C@_0CE@IKBNEHA@?$GAvector?5vbase?5constructor?5iterat@ 1002d280     LIBCMT:undname.obj
 0002:000052a4       ??_C@_0BL@NILFHHPC@?$GAvirtual?5displacement?5map?8?$AA@ 1002d2a4     LIBCMT:undname.obj
 0002:000052c0       ??_C@_0CB@JONCMFFK@?$GAeh?5vector?5constructor?5iterator?8@ 1002d2c0     LIBCMT:undname.obj
 0002:000052e4       ??_C@_0CA@GCEOPDGL@?$GAeh?5vector?5destructor?5iterator?8?$AA@ 1002d2e4     LIBCMT:undname.obj
 0002:00005304       ??_C@_0CH@OOJPLCPH@?$GAeh?5vector?5vbase?5constructor?5ite@ 1002d304     LIBCMT:undname.obj
 0002:0000532c       ??_C@_0BL@LLKPOHJI@?$GAcopy?5constructor?5closure?8?$AA@ 1002d32c     LIBCMT:undname.obj
 0002:00005348       ??_C@_0BA@KBCDOMBN@?$GAudt?5returning?8?$AA@ 1002d348     LIBCMT:undname.obj
 0002:00005358       ??_C@_03KLGMFNMG@?$GAEH?$AA@ 1002d358     LIBCMT:undname.obj
 0002:0000535c       ??_C@_05KHLCHHI@?$GARTTI?$AA@ 1002d35c     LIBCMT:undname.obj
 0002:00005364       ??_C@_0BA@KKLDJDLB@?$GAlocal?5vftable?8?$AA@ 1002d364     LIBCMT:undname.obj
 0002:00005374       ??_C@_0CE@IIHCMGGL@?$GAlocal?5vftable?5constructor?5closu@ 1002d374     LIBCMT:undname.obj
 0002:00005398       ??_C@_06FHBGPFGH@?5new?$FL?$FN?$AA@ 1002d398     LIBCMT:undname.obj
 0002:000053a0       ??_C@_09LBNFPBCA@?5delete?$FL?$FN?$AA@ 1002d3a0     LIBCMT:undname.obj
 0002:000053ac       ??_C@_0P@HJKNJFNN@?$GAomni?5callsig?8?$AA@ 1002d3ac     LIBCMT:undname.obj
 0002:000053bc       ??_C@_0BL@CNOONJFP@?$GAplacement?5delete?5closure?8?$AA@ 1002d3bc     LIBCMT:undname.obj
 0002:000053d8       ??_C@_0BN@CKNJLHMB@?$GAplacement?5delete?$FL?$FN?5closure?8?$AA@ 1002d3d8     LIBCMT:undname.obj
 0002:000053f8       ??_C@_0CG@CFDHKGGD@?$GAmanaged?5vector?5constructor?5iter@ 1002d3f8     LIBCMT:undname.obj
 0002:00005420       ??_C@_0CF@IMGKMJNO@?$GAmanaged?5vector?5destructor?5itera@ 1002d420     LIBCMT:undname.obj
 0002:00005448       ??_C@_0CG@HLDDJMAG@?$GAeh?5vector?5copy?5constructor?5iter@ 1002d448     LIBCMT:undname.obj
 0002:00005470       ??_C@_0CM@FCBBDIGB@?$GAeh?5vector?5vbase?5copy?5constructo@ 1002d470     LIBCMT:undname.obj
 0002:0000549c       ??_C@_0BL@CLIPGLGB@?$GAdynamic?5initializer?5for?5?8?$AA@ 1002d49c     LIBCMT:undname.obj
 0002:000054b8       ??_C@_0CB@PDBIFEP@?$GAdynamic?5atexit?5destructor?5for?5?8@ 1002d4b8     LIBCMT:undname.obj
 0002:000054dc       ??_C@_0CD@CGAJBKEJ@?$GAvector?5copy?5constructor?5iterato@ 1002d4dc     LIBCMT:undname.obj
 0002:00005500       ??_C@_0CJ@GJELGAMM@?$GAvector?5vbase?5copy?5constructor?5i@ 1002d500     LIBCMT:undname.obj
 0002:0000552c       ??_C@_0CL@FGIJHLCE@?$GAmanaged?5vector?5copy?5constructor@ 1002d52c     LIBCMT:undname.obj
 0002:00005558       ??_C@_0BM@PMGGMLDN@?$GAlocal?5static?5thread?5guard?8?$AA@ 1002d558     LIBCMT:undname.obj
 0002:00005574       ??_C@_0BC@DAFEJGAK@?5Type?5Descriptor?8?$AA@ 1002d574     LIBCMT:undname.obj
 0002:00005588       ??_C@_0BM@LDKODKLH@?5Base?5Class?5Descriptor?5at?5?$CI?$AA@ 1002d588     LIBCMT:undname.obj
 0002:000055a4       ??_C@_0BD@LGICGFMM@?5Base?5Class?5Array?8?$AA@ 1002d5a4     LIBCMT:undname.obj
 0002:000055b8       ??_C@_0BN@MECKDCOJ@?5Class?5Hierarchy?5Descriptor?8?$AA@ 1002d5b8     LIBCMT:undname.obj
 0002:000055d8       ??_C@_0BK@CFCOFLF@?5Complete?5Object?5Locator?8?$AA@ 1002d5d8     LIBCMT:undname.obj
 0002:000055f4       ??_C@_06PGGFOGJG@1?$CDSNAN?$AA@ 1002d5f4     LIBCMT:x10fout.obj
 0002:000055fc       ??_C@_05PHHOCPM@1?$CDIND?$AA@ 1002d5fc     LIBCMT:x10fout.obj
 0002:00005604       ??_C@_05DNEBIAHO@1?$CDINF?$AA@ 1002d604     LIBCMT:x10fout.obj
 0002:0000560c       ??_C@_06IMKFLFPG@1?$CDQNAN?$AA@ 1002d60c     LIBCMT:x10fout.obj
 0002:00005614       ??_C@_1BA@BALFACEM@?$AAC?$AAO?$AAN?$AAO?$AAU?$AAT?$AA$?$AA?$AA@ 1002d614     LIBCMT:initcon.obj
 0002:00005624       ??_C@_1DG@OKCGPKIB@?$AAp?$AAe?$AAr?$AAs?$AAi?$AAs?$AAt?$AAe?$AAn?$AAt?$AA?$CI?$AA?$CJ?$AA?4?$AAI?$AAs?$AAN?$AAe?$AAa?$AAr?$AAD?$AAe?$AAa?$AAt?$AAh?$AA?$CI?$AA?$CJ?$AA?$AA@ 1002d624     node-expat.obj
 0002:0000565c       ??_C@_1CO@EGNPJLKI@?$AAp?$AAe?$AAr?$AAs?$AAi?$AAs?$AAt?$AAe?$AAn?$AAt?$AA?$CI?$AA?$CJ?$AA?4?$AAI?$AAs?$AAE?$AAm?$AAp?$AAt?$AAy?$AA?$CI?$AA?$CJ?$AA?$AA@ 1002d65c     node-expat.obj
 0002:0000568c       ??_C@_1DA@FBGAEOIO@?$AA?$CB?$AAp?$AAe?$AAr?$AAs?$AAi?$AAs?$AAt?$AAe?$AAn?$AAt?$AA?$CI?$AA?$CJ?$AA?4?$AAI?$AAs?$AAE?$AAm?$AAp?$AAt?$AAy?$AA?$CI?$AA?$CJ?$AA?$AA@ 1002d68c     node-expat.obj
 0002:000056bc       ??_C@_1CO@JCKLEFMA@?$AA?$CB?$AAp?$AAe?$AAr?$AAs?$AAi?$AAs?$AAt?$AAe?$AAn?$AAt?$AA?$CI?$AA?$CJ?$AA?4?$AAI?$AAs?$AAW?$AAe?$AAa?$AAk?$AA?$CI?$AA?$CJ?$AA?$AA@ 1002d6bc     node-expat.obj
 0002:000056ec       ??_C@_1BE@GMLLOIPJ@?$AAr?$AAe?$AAf?$AAs?$AA_?$AA?5?$AA?$DO?$AA?5?$AA0?$AA?$AA@ 1002d6ec     node-expat.obj
 0002:00005700       ??_C@_1CC@GBFLAAPF@?$AAw?$AAr?$AAa?$AAp?$AA?9?$AA?$DO?$AAr?$AAe?$AAf?$AAs?$AA_?$AA?5?$AA?$DN?$AA?$DN?$AA?5?$AA0?$AA?$AA@ 1002d700     node-expat.obj
 0002:00005724       ??_C@_1DI@ELDBKNAK@?$AAw?$AAr?$AAa?$AAp?$AA?9?$AA?$DO?$AAh?$AAa?$AAn?$AAd?$AAl?$AAe?$AA_?$AA?4?$AAI?$AAs?$AAN?$AAe?$AAa?$AAr?$AAD?$AAe?$AAa?$AAt?$AAh?$AA?$CI?$AA?$CJ?$AA?$AA@ 1002d724     node-expat.obj
 0002:00005760       ??_C@_1GA@DGKIBLCK@?$AAE?$AA?3?$AA?2?$AAk?$AAm?$AAl?$AAc?$AA?2?$AAh?$AAi?$AAk?$AAv?$AAi?$AAs?$AAi?$AAo?$AAn?$AA_?$AAs?$AAi?$AAg?$AAn?$AAa?$AAl?$AA?2?$AAn?$AAo?$AAd?$AAe?$AA_?$AAm?$AAo@ 1002d760     node-expat.obj
 0002:000057c0       ??_C@_1BO@OPFMAOCA@?$AAl?$AAe?$AAn?$AA?5?$AA?$DM?$AA?$DN?$AA?5?$AAI?$AAN?$AAT?$AA_?$AAM?$AAA?$AAX?$AA?$AA@ 1002d7c0     node-expat.obj
 0002:000057e0       ??_C@_1BE@CKDJNAPC@?$AAs?$AAt?$AAr?$AA_?$AA?5?$AA?$CB?$AA?$DN?$AA?5?$AA0?$AA?$AA@ 1002d7e0     node-expat.obj
 0002:000057f8       ??_C@_1HI@GHCLCDBF@?$AAe?$AA?3?$AA?2?$AAk?$AAm?$AAl?$AAc?$AA?2?$AAh?$AAi?$AAk?$AAv?$AAi?$AAs?$AAi?$AAo?$AAn?$AA_?$AAs?$AAi?$AAg?$AAn?$AAa?$AAl?$AA?2?$AAn?$AAo?$AAd?$AAe?$AA_?$AAm?$AAo@ 1002d7f8     node-expat.obj
 0002:00005870       ??_C@_1EC@MGGLMBLC@?$AAo?$AAb?$AAj?$AAe?$AAc?$AAt?$AA?9?$AA?$DO?$AAI?$AAn?$AAt?$AAe?$AAr?$AAn?$AAa?$AAl?$AAF?$AAi?$AAe?$AAl?$AAd?$AAC?$AAo?$AAu?$AAn?$AAt?$AA?$CI?$AA?$CJ?$AA?5?$AA?$DO?$AA?5?$AA0@ 1002d870     node-expat.obj
 0002:000058b4       ??_C@_05GOEGCMJM@parse?$AA@ 1002d8b4     node-expat.obj
 0002:000058bc       ??_C@_0M@FJCOBIHE@setEncoding?$AA@ 1002d8bc     node-expat.obj
 0002:000058c8       ??_C@_0BD@NCFPJGHI@setUnknownEncoding?$AA@ 1002d8c8     node-expat.obj
 0002:000058dc       ??_C@_08OCOLIKNF@getError?$AA@ 1002d8dc     node-expat.obj
 0002:000058e8       ??_C@_04PEGFANN@stop?$AA@  1002d8e8     node-expat.obj
 0002:000058f0       ??_C@_06PLELHCEK@resume?$AA@ 1002d8f0     node-expat.obj
 0002:000058f8       ??_C@_05CFMALAOA@reset?$AA@ 1002d8f8     node-expat.obj
 0002:00005900       ??_C@_0BF@NNHOPLKO@getCurrentLineNumber?$AA@ 1002d900     node-expat.obj
 0002:00005918       ??_C@_0BH@OEDDKDKJ@getCurrentColumnNumber?$AA@ 1002d918     node-expat.obj
 0002:00005930       ??_C@_0BE@BPOAILGG@getCurrentByteIndex?$AA@ 1002d930     node-expat.obj
 0002:00005944       ??_C@_06CLGDLLKL@Parser?$AA@ 1002d944     node-expat.obj
 0002:0000594c       ??_C@_1CC@CDADAAOF@?$AA?4?$AA?4?$AA?2?$AAn?$AAo?$AAd?$AAe?$AA?9?$AAe?$AAx?$AAp?$AAa?$AAt?$AA?4?$AAc?$AAc?$AA?$AA@ 1002d94c     node-expat.obj
 0002:00005970       ??_C@_1BO@PPKGEODP@?$AAp?$AAa?$AAr?$AAs?$AAe?$AAr?$AA?5?$AA?$CB?$AA?$DN?$AA?5?$AAN?$AAU?$AAL?$AAL?$AA?$AA@ 1002d970     node-expat.obj
 0002:00005990       ??_C@_0CG@LMFBHNNP@Parse?5buffer?5must?5be?5String?5or?5B@ 1002d990     node-expat.obj
 0002:000059b8       ??_C@_1BI@ICGGMGLK@?$AAb?$AAu?$AAf?$AA?5?$AA?$CB?$AA?$DN?$AA?5?$AAN?$AAU?$AAL?$AAL?$AA?$AA@ 1002d9b8     node-expat.obj
 0002:000059d0       ??_C@_1GI@FDKMMJNH@?$AAs?$AAt?$AAr?$AA?4?$AAW?$AAr?$AAi?$AAt?$AAe?$AAU?$AAt?$AAf?$AA8?$AA?$CI?$AAs?$AAt?$AAa?$AAt?$AAi?$AAc?$AA_?$AAc?$AAa?$AAs?$AAt?$AA?$DM?$AAc?$AAh?$AAa?$AAr?$AA?5?$AA?$CK@ 1002d9d0     node-expat.obj
 0002:00005a38       ??_C@_0N@PECAHNM@startElement?$AA@ 1002da38     node-expat.obj
 0002:00005a48       ??_C@_0L@GKEIAKOG@endElement?$AA@ 1002da48     node-expat.obj
 0002:00005a54       ??_C@_0L@PIKKALHC@startCdata?$AA@ 1002da54     node-expat.obj
 0002:00005a60       ??_C@_08PMGAFGIG@endCdata?$AA@ 1002da60     node-expat.obj
 0002:00005a6c       ??_C@_04CIMGMMMG@text?$AA@ 1002da6c     node-expat.obj
 0002:00005a74       ??_C@_0BG@BKBGIBPJ@processingInstruction?$AA@ 1002da74     node-expat.obj
 0002:00005a8c       ??_C@_07GJGNEJFD@comment?$AA@ 1002da8c     node-expat.obj
 0002:00005a94       ??_C@_07FCGNOANN@xmlDecl?$AA@ 1002da94     node-expat.obj
 0002:00005a9c       ??_C@_0L@OGGGJLI@entityDecl?$AA@ 1002da9c     node-expat.obj
 0002:00005aa8       ??_C@_0BA@DMMGAIKL@unknownEncoding?$AA@ 1002daa8     node-expat.obj
 0002:00005ab8       ??_C@_0FJ@CMONEKKA@setUnknownEncoding?$CI?$CJ?5must?5be?5syn@ 1002dab8     node-expat.obj
 0002:00005b14       ??_C@_0CN@NKFBPONF@UnknownEncoding?5map?5must?5consist@ 1002db14     node-expat.obj
 0002:00005b44       ??_C@_0CH@HNDNKAFP@SetUnknownEncoding?5expects?5a?5map@ 1002db44     node-expat.obj
 0002:00005b6c       ??_C@_04KNBGJDFM@emit?$AA@ 1002db6c     node-expat.obj
 0002:00005b74       ??_C@_0BB@HFIIKFIE@?4?4?2node?9expat?4cc?$AA@ 1002db74     node-expat.obj
 0002:00005b88       ??_C@_0L@CMNMDGH@node_expat?$AA@ 1002db88     node-expat.obj
 0002:00005b94       ??_C@_1CE@LNAGEONJ@?$AA?$CB?$AAo?$AAb?$AAj?$AAe?$AAc?$AAt?$AA?4?$AAI?$AAs?$AAE?$AAm?$AAp?$AAt?$AAy?$AA?$CI?$AA?$CJ?$AA?$AA@ 1002db94     node-expat.obj
 0002:00005bb8       ??_7ObjectWrap@Nan@@6B@    1002dbb8     node-expat.obj
 0002:00005bc4       ??_7Parser@@6B@            1002dbc4     node-expat.obj
 0002:00005bd0       ??_C@_08HCOMDCCD@iojs?4exe?$AA@ 1002dbd0     win_delay_load_hook.obj
 0002:00005bdc       ??_C@_08JDDNMFDB@node?4exe?$AA@ 1002dbdc     win_delay_load_hook.obj
 0002:00005be8       ??_C@_0N@JJPEKNFO@ADVAPI32?4DLL?$AA@ 1002dbe8     libexpat:xmlparse.obj
 0002:00005bf8       ??_C@_0BC@JEAENNKH@SystemFunction036?$AA@ 1002dbf8     libexpat:xmlparse.obj
 0002:00005c0c       ??_C@_0BE@MOEFKIMK@EXPAT_ENTROPY_DEBUG?$AA@ 1002dc0c     libexpat:xmlparse.obj
 0002:00005c20       ??_C@_01HIHLOKLC@1?$AA@    1002dc20     libexpat:xmlparse.obj
 0002:00005c24       ??_C@_0CF@BGBKMAKK@Entropy?3?5?$CFs?5?9?9?$DO?50x?$CF0?$CKlx?5?$CI?$CFlu?5byt@ 1002dc24     libexpat:xmlparse.obj
 0002:00005c4c       ??_C@_0N@DNFAPLGG@RtlGenRandom?$AA@ 1002dc4c     libexpat:xmlparse.obj
 0002:00005c5c       ??_C@_0M@HOLMKBIH@fallback?$CI4?$CJ?$AA@ 1002dc5c     libexpat:xmlparse.obj
 0002:00005c68       ??_C@_0O@BNNCBLEN@out?5of?5memory?$AA@ 1002dc68     libexpat:xmlparse.obj
 0002:00005c78       ??_C@_0N@MNJHOOI@syntax?5error?$AA@ 1002dc78     libexpat:xmlparse.obj
 0002:00005c88       ??_C@_0BB@BCAHBADH@no?5element?5found?$AA@ 1002dc88     libexpat:xmlparse.obj
 0002:00005c9c       ??_C@_0CA@BLMFJLH@not?5well?9formed?5?$CIinvalid?5token?$CJ?$AA@ 1002dc9c     libexpat:xmlparse.obj
 0002:00005cbc       ??_C@_0P@EFPOEKHH@unclosed?5token?$AA@ 1002dcbc     libexpat:xmlparse.obj
 0002:00005ccc       ??_C@_0BC@DLKMMFBA@partial?5character?$AA@ 1002dccc     libexpat:xmlparse.obj
 0002:00005ce0       ??_C@_0P@BJCMGPB@mismatched?5tag?$AA@ 1002dce0     libexpat:xmlparse.obj
 0002:00005cf0       ??_C@_0BE@JIEGOGM@duplicate?5attribute?$AA@ 1002dcf0     libexpat:xmlparse.obj
 0002:00005d04       ??_C@_0BM@IPDLAPKG@junk?5after?5document?5element?$AA@ 1002dd04     libexpat:xmlparse.obj
 0002:00005d20       ??_C@_0CD@DPHGJCFM@illegal?5parameter?5entity?5referen@ 1002dd20     libexpat:xmlparse.obj
 0002:00005d44       ??_C@_0BB@KFIEPEGG@undefined?5entity?$AA@ 1002dd44     libexpat:xmlparse.obj
 0002:00005d58       ??_C@_0BL@OMDFBMFF@recursive?5entity?5reference?$AA@ 1002dd58     libexpat:xmlparse.obj
 0002:00005d74       ??_C@_0BE@PDLJJMLG@asynchronous?5entity?$AA@ 1002dd74     libexpat:xmlparse.obj
 0002:00005d88       ??_C@_0CG@DAIFOKHG@reference?5to?5invalid?5character?5n@ 1002dd88     libexpat:xmlparse.obj
 0002:00005db0       ??_C@_0BL@LDLBPPBJ@reference?5to?5binary?5entity?$AA@ 1002ddb0     libexpat:xmlparse.obj
 0002:00005dcc       ??_C@_0CK@BFEDEECD@reference?5to?5external?5entity?5in?5@ 1002ddcc     libexpat:xmlparse.obj
 0002:00005df8       ??_C@_0CP@GDJNCKID@XML?5or?5text?5declaration?5not?5at?5s@ 1002ddf8     libexpat:xmlparse.obj
 0002:00005e28       ??_C@_0BB@ICOLFIAA@unknown?5encoding?$AA@ 1002de28     libexpat:xmlparse.obj
 0002:00005e3c       ??_C@_0DD@GOCEPOFM@encoding?5specified?5in?5XML?5declar@ 1002de3c     libexpat:xmlparse.obj
 0002:00005e70       ??_C@_0BH@MDDEMGAA@unclosed?5CDATA?5section?$AA@ 1002de70     libexpat:xmlparse.obj
 0002:00005e88       ??_C@_0CO@FNPHCKLH@error?5in?5processing?5external?5ent@ 1002de88     libexpat:xmlparse.obj
 0002:00005eb8       ??_C@_0BL@EIMELDJB@document?5is?5not?5standalone?$AA@ 1002deb8     libexpat:xmlparse.obj
 0002:00005ed4       ??_C@_0DD@IKDGPBBK@unexpected?5parser?5state?5?9?5please@ 1002ded4     libexpat:xmlparse.obj
 0002:00005f08       ??_C@_0CE@NOGIMGHN@entity?5declared?5in?5parameter?5ent@ 1002df08     libexpat:xmlparse.obj
 0002:00005f2c       ??_C@_0DE@GICHNEBE@requested?5feature?5requires?5XML_D@ 1002df2c     libexpat:xmlparse.obj
 0002:00005f60       ??_C@_0CN@OFAMBGCK@cannot?5change?5setting?5once?5parsi@ 1002df60     libexpat:xmlparse.obj
 0002:00005f90       ??_C@_0P@JDIHIJCE@unbound?5prefix?$AA@ 1002df90     libexpat:xmlparse.obj
 0002:00005fa0       ??_C@_0BK@MOPPLLIH@must?5not?5undeclare?5prefix?$AA@ 1002dfa0     libexpat:xmlparse.obj
 0002:00005fbc       ??_C@_0CG@GAKHJBB@incomplete?5markup?5in?5parameter?5e@ 1002dfbc     libexpat:xmlparse.obj
 0002:00005fe4       ??_C@_0CA@MFJNBIIE@XML?5declaration?5not?5well?9formed?$AA@ 1002dfe4     libexpat:xmlparse.obj
 0002:00006004       ??_C@_0CB@CMKECMLJ@text?5declaration?5not?5well?9formed@ 1002e004     libexpat:xmlparse.obj
 0002:00006028       ??_C@_0CC@KJFFNAB@illegal?5character?$CIs?$CJ?5in?5public?5i@ 1002e028     libexpat:xmlparse.obj
 0002:0000604c       ??_C@_0BB@EMGHLGNF@parser?5suspended?$AA@ 1002e04c     libexpat:xmlparse.obj
 0002:00006060       ??_C@_0BF@IHJDPIFP@parser?5not?5suspended?$AA@ 1002e060     libexpat:xmlparse.obj
 0002:00006078       ??_C@_0BA@OMEDOLHN@parsing?5aborted?$AA@ 1002e078     libexpat:xmlparse.obj
 0002:00006088       ??_C@_0BB@JICMAGEA@parsing?5finished?$AA@ 1002e088     libexpat:xmlparse.obj
 0002:0000609c       ??_C@_0CM@DAGNAICL@cannot?5suspend?5in?5external?5param@ 1002e09c     libexpat:xmlparse.obj
 0002:000060c8       ??_C@_0FA@GCHHMGIN@reserved?5prefix?5?$CIxml?$CJ?5must?5not?5b@ 1002e0c8     libexpat:xmlparse.obj
 0002:00006118       ??_C@_0DL@LHGBEOM@reserved?5prefix?5?$CIxmlns?$CJ?5must?5not@ 1002e118     libexpat:xmlparse.obj
 0002:00006158       ??_C@_0EA@IHHBKGMF@prefix?5must?5not?5be?5bound?5to?5one?5@ 1002e158     libexpat:xmlparse.obj
 0002:00006198       ??_C@_0BB@MAAMGNOO@sizeof?$CIXML_Char?$CJ?$AA@ 1002e198     libexpat:xmlparse.obj
 0002:000061ac       ??_C@_0BC@LHECICLE@sizeof?$CIXML_LChar?$CJ?$AA@ 1002e1ac     libexpat:xmlparse.obj
 0002:000061c0       ??_C@_07BAMNINFG@XML_DTD?$AA@ 1002e1c0     libexpat:xmlparse.obj
 0002:000061c8       ??_C@_0BC@NAONLODN@XML_CONTEXT_BYTES?$AA@ 1002e1c8     libexpat:xmlparse.obj
 0002:000061dc       ??_C@_06CEJAJKAC@XML_NS?$AA@ 1002e1dc     libexpat:xmlparse.obj
 0002:00008290       __load_config_used         10030290     LIBCMT:loadcfg.obj
 0002:00008354       ??_R1A@?0A@EA@exception@std@@8 10030354     libcpmt:xthrow.obj
 0002:00008370       ??_R3exception@std@@8      10030370     libcpmt:xthrow.obj
 0002:00008380       ??_R2exception@std@@8      10030380     libcpmt:xthrow.obj
 0002:00008388       ??_R4bad_alloc@std@@6B@    10030388     libcpmt:xthrow.obj
 0002:0000839c       ??_R3bad_alloc@std@@8      1003039c     libcpmt:xthrow.obj
 0002:000083ac       ??_R2bad_alloc@std@@8      100303ac     libcpmt:xthrow.obj
 0002:000083b8       ??_R1A@?0A@EA@bad_alloc@std@@8 100303b8     libcpmt:xthrow.obj
 0002:000083d4       ??_R4type_info@@6B@        100303d4     LIBCMT:typinfo.obj
 0002:000083e8       ??_R3type_info@@8          100303e8     LIBCMT:typinfo.obj
 0002:000083f8       ??_R2type_info@@8          100303f8     LIBCMT:typinfo.obj
 0002:00008400       ??_R1A@?0A@EA@type_info@@8 10030400     LIBCMT:typinfo.obj
 0002:0000841c       ??_R4exception@std@@6B@    1003041c     LIBCMT:stdexcpt.obj
 0002:00008430       ___safe_se_handler_table   10030430     <linker-defined>
 0002:0000843c       ___rtc_iaa                 1003043c     LIBCMT:initsect.obj
 0002:00008440       ___rtc_izz                 10030440     LIBCMT:initsect.obj
 0002:00008444       ___rtc_taa                 10030444     LIBCMT:initsect.obj
 0002:00008448       ___rtc_tzz                 10030448     LIBCMT:initsect.obj
 0002:00008450       __TI2?AVbad_alloc@std@@    10030450     libcpmt:xthrow.obj
 0002:00008460       __CTA2?AVbad_alloc@std@@   10030460     libcpmt:xthrow.obj
 0002:0000846c       __CT??_R0?AVbad_alloc@std@@@8??0bad_alloc@std@@QAE@ABV01@@Z12 1003046c     libcpmt:xthrow.obj
 0002:00008488       __CT??_R0?AVexception@std@@@8??0exception@std@@QAE@ABV01@@Z12 10030488     libcpmt:xthrow.obj
 0002:0000889c       __DELAY_IMPORT_DESCRIPTOR_node_exe 1003089c     node:node.exe
 0002:000088bc       __NULL_DELAY_IMPORT_DESCRIPTOR 100308bc     node:node.exe
 0002:000089bc       \177node_NULL_THUNK_DATA_DLN 100309bc     node:node.exe
 0002:00009794       \177node_NULL_THUNK_DATA_DLB 10031794     node:node.exe
 0002:000098d8       __IMPORT_DESCRIPTOR_KERNEL32 100318d8     kernel32:KERNEL32.dll
 0002:000098ec       __NULL_IMPORT_DESCRIPTOR   100318ec     kernel32:KERNEL32.dll
 0003:00000060       __iob                      10032060     LIBCMT:_file.obj
 0003:000002e0       __fltused                  100322e0     LIBCMT:fpinit.obj
 0003:000002e4       __ldused                   100322e4     LIBCMT:fpinit.obj
 0003:000002e8       ___security_cookie         100322e8     LIBCMT:gs_cookie.obj
 0003:000002ec       ___security_cookie_complement 100322ec     LIBCMT:gs_cookie.obj
 0003:000002f0       ___isa_enabled             100322f0     LIBCMT:cpu_disp.obj
 0003:00000468       ___abort_behavior          10032468     LIBCMT:abort.obj
 0003:00000478       __d_inf                    10032478     LIBCMT:util.obj
 0003:00000480       __d_ind                    10032480     LIBCMT:util.obj
 0003:00000488       __d_max                    10032488     LIBCMT:util.obj
 0003:00000490       __d_min                    10032490     LIBCMT:util.obj
 0003:00000498       __d_mzero                  10032498     LIBCMT:util.obj
 0003:000005a8       __mbctype                  100325a8     LIBCMT:mbctype.obj
 0003:000006b0       __mbcasemap                100326b0     LIBCMT:mbctype.obj
 0003:000007b0       ___initialmbcinfo          100327b0     LIBCMT:mbctype.obj
 0003:000009d4       ___ptmbcinfo               100329d4     LIBCMT:mbctype.obj
 0003:00000ac8       ___flsindex                10032ac8     LIBCMT:tidtable.obj
 0003:00000acc       ___mb_cur_max              10032acc     LIBCMT:nlsdata.obj
 0003:00000ad0       ___wclocalestr             10032ad0     LIBCMT:nlsdata.obj
 0003:00000ad8       ___lc_time_c               10032ad8     LIBCMT:nlsdata.obj
 0003:00000c3c       ___ptlocinfo               10032c3c     LIBCMT:nlsdata.obj
 0003:00000c40       ___initiallocinfo          10032c40     LIBCMT:nlsdata.obj
 0003:00000cf8       ___globallocalestatus      10032cf8     LIBCMT:glstatus.obj
 0003:00000d00       ___badioinfo               10032d00     LIBCMT:ioinit.obj
 0003:00000e68       ___nullstring              10032e68     LIBCMT:output.obj
 0003:00000e6c       ___wnullstring             10032e6c     LIBCMT:output.obj
 0003:00000e70       __cfltcvt_tab              10032e70     LIBCMT:cmiscdat.obj
 0003:00000ea0       __matherr_flag             10032ea0     LIBCMT:matherr.obj
 0003:00000ea8       ___lconv                   10032ea8     LIBCMT:lconv.obj
 0003:00000eac       ___lconv_static_decimal    10032eac     LIBCMT:lconv.obj
 0003:00000eb0       ___lconv_c                 10032eb0     LIBCMT:lconv.obj
 0003:00000f00       ___lconv_static_W_decimal  10032f00     LIBCMT:lconv.obj
 0003:00000f04       __pctype                   10032f04     LIBCMT:ctype.obj
 0003:00000f08       __pwctype                  10032f08     LIBCMT:ctype.obj
 0003:00000f10       __NLG_Destination          10032f10     LIBCMT:exsup.obj
 0003:00000f50       __confh                    10032f50     LIBCMT:initcon.obj
 0003:00000f60       __pow10pos                 10032f60     LIBCMT:constpow.obj
 0003:000010c0       __pow10neg                 100330c0     LIBCMT:constpow.obj
 0003:00001220       __HUGE                     10033220     LIBCMT:huge.obj
 0003:0000124c       ___pfnDliNotifyHook2       1003324c     win_delay_load_hook.obj
 0003:00001250       ??_R0?AVbad_alloc@std@@@8  10033250     libcpmt:xthrow.obj
 0003:0000126c       ??_R0?AVexception@std@@@8  1003326c     libcpmt:xthrow.obj
 0003:00001288       ??_R0?AVtype_info@@@8      10033288     LIBCMT:typinfo.obj
 0003:000012a0       __imp_?Length@Buffer@node@@YAIV?$Local@VObject@v8@@@v8@@@Z 100332a0     node:node.exe
 0003:000012a4       __imp_?Data@Buffer@node@@YAPADV?$Local@VObject@v8@@@v8@@@Z 100332a4     node:node.exe
 0003:000012a8       __imp_?HasInstance@Buffer@node@@YA_NV?$Local@VObject@v8@@@v8@@@Z 100332a8     node:node.exe
 0003:000012ac       __imp__node_module_register 100332ac     node:node.exe
 0003:000012b0       __imp_?New@Signature@v8@@SA?AV?$Local@VSignature@v8@@@2@PAVIsolate@2@V?$Local@VFunctionTemplate@v8@@@2@@Z 100332b0     node:node.exe
 0003:000012b4       __imp_?ToLocalEmpty@V8@v8@@CAXXZ 100332b4     node:node.exe
 0003:000012b8       __imp_?ClearWeak@V8@v8@@CAPAXPAPAVObject@internal@2@@Z 100332b8     node:node.exe
 0003:000012bc       __imp_?MakeWeak@V8@v8@@CAXPAPAVObject@internal@2@PAXP6AXABV?$WeakCallbackInfo@X@2@@ZW4WeakCallbackType@2@@Z 100332bc     node:node.exe
 0003:000012c0       __imp_?DisposeGlobal@V8@v8@@CAXPAPAVObject@internal@2@@Z 100332c0     node:node.exe
 0003:000012c4       __imp_?GlobalizeReference@V8@v8@@CAPAPAVObject@internal@2@PAVIsolate@42@PAPAV342@@Z 100332c4     node:node.exe
 0003:000012c8       __imp_?Escape@EscapableHandleScope@v8@@AAEPAPAVObject@internal@2@PAPAV342@@Z 100332c8     node:node.exe
 0003:000012cc       __imp_??0EscapableHandleScope@v8@@QAE@PAVIsolate@1@@Z 100332cc     node:node.exe
 0003:000012d0       __imp_?Int32Value@Value@v8@@QBEHXZ 100332d0     node:node.exe
 0003:000012d4       __imp_?ToInt32@Value@v8@@QBE?AV?$MaybeLocal@VInt32@v8@@@2@V?$Local@VContext@v8@@@2@@Z 100332d4     node:node.exe
 0003:000012d8       __imp_?ToUint32@Value@v8@@QBE?AV?$MaybeLocal@VUint32@v8@@@2@V?$Local@VContext@v8@@@2@@Z 100332d8     node:node.exe
 0003:000012dc       __imp_?IsInt32@Value@v8@@QBE_NXZ 100332dc     node:node.exe
 0003:000012e0       __imp_?IsObject@Value@v8@@QBE_NXZ 100332e0     node:node.exe
 0003:000012e4       __imp_?IsArray@Value@v8@@QBE_NXZ 100332e4     node:node.exe
 0003:000012e8       __imp_?IsTrue@Value@v8@@QBE_NXZ 100332e8     node:node.exe
 0003:000012ec       __imp_?SetClassName@FunctionTemplate@v8@@QAEXV?$Local@VString@v8@@@2@@Z 100332ec     node:node.exe
 0003:000012f0       __imp_?PrototypeTemplate@FunctionTemplate@v8@@QAE?AV?$Local@VObjectTemplate@v8@@@2@XZ 100332f0     node:node.exe
 0003:000012f4       __imp_?InstanceTemplate@FunctionTemplate@v8@@QAE?AV?$Local@VObjectTemplate@v8@@@2@XZ 100332f4     node:node.exe
 0003:000012f8       __imp_?GetFunction@FunctionTemplate@v8@@QAE?AV?$Local@VFunction@v8@@@2@XZ 100332f8     node:node.exe
 0003:000012fc       __imp_?New@FunctionTemplate@v8@@SA?AV?$Local@VFunctionTemplate@v8@@@2@PAVIsolate@2@P6AXABV?$FunctionCallbackInfo@VValue@v8@@@2@@ZV?$Local@VValue@v8@@@2@V?$Local@VSignature@v8@@@2@H@Z 100332fc     node:node.exe
 0003:00001300       __imp_?Error@Exception@v8@@SA?AV?$Local@VValue@v8@@@2@V?$Local@VString@v8@@@2@@Z 10033300     node:node.exe
 0003:00001304       __imp_?TypeError@Exception@v8@@SA?AV?$Local@VValue@v8@@@2@V?$Local@VString@v8@@@2@@Z 10033304     node:node.exe
 0003:00001308       __imp_?NewFromUtf8@String@v8@@SA?AV?$MaybeLocal@VString@v8@@@2@PAVIsolate@2@PBDW4NewStringType@2@H@Z 10033308     node:node.exe
 0003:0000130c       __imp_?WriteUtf8@String@v8@@QBEHPADHPAHH@Z 1003330c     node:node.exe
 0003:00001310       __imp_?Utf8Length@String@v8@@QBEHXZ 10033310     node:node.exe
 0003:00001314       __imp_?Length@String@v8@@QBEHXZ 10033314     node:node.exe
 0003:00001318       __imp_?CreateHandle@HandleScope@v8@@KAPAPAVObject@internal@2@PAVIsolate@42@PAV342@@Z 10033318     node:node.exe
 0003:0000131c       __imp_?CreateHandle@HandleScope@v8@@CAPAPAVObject@internal@2@PAVHeapObject@42@PAV342@@Z 1003331c     node:node.exe
 0003:00001320       __imp_??1HandleScope@v8@@QAE@XZ 10033320     node:node.exe
 0003:00001324       __imp_??0HandleScope@v8@@QAE@PAVIsolate@1@@Z 10033324     node:node.exe
 0003:00001328       __imp_?SlowGetAlignedPointerFromInternalField@Object@v8@@AAEPAXH@Z 10033328     node:node.exe
 0003:0000132c       __imp_?SlowGetInternalField@Object@v8@@AAE?AV?$Local@VValue@v8@@@2@H@Z 1003332c     node:node.exe
 0003:00001330       __imp_?New@Object@v8@@SA?AV?$Local@VObject@v8@@@2@PAVIsolate@2@@Z 10033330     node:node.exe
 0003:00001334       __imp_?SetAlignedPointerInInternalField@Object@v8@@QAEXHPAX@Z 10033334     node:node.exe
 0003:00001338       __imp_?SetInternalField@Object@v8@@QAEXHV?$Local@VValue@v8@@@2@@Z 10033338     node:node.exe
 0003:0000133c       __imp_?InternalFieldCount@Object@v8@@QAEHXZ 1003333c     node:node.exe
 0003:00001340       __imp_?Get@Object@v8@@QAE?AV?$Local@VValue@v8@@@2@V32@@Z 10033340     node:node.exe
 0003:00001344       __imp_?Set@Object@v8@@QAE_NV?$Local@VValue@v8@@@2@0@Z 10033344     node:node.exe
 0003:00001348       __imp_?Set@Template@v8@@QAEXV?$Local@VName@v8@@@2@V?$Local@VData@v8@@@2@W4PropertyAttribute@2@@Z 10033348     node:node.exe
 0003:0000134c       __imp_?SetInternalFieldCount@ObjectTemplate@v8@@QAEXH@Z 1003334c     node:node.exe
 0003:00001350       __imp_?NewInstance@ObjectTemplate@v8@@QAE?AV?$MaybeLocal@VObject@v8@@@2@V?$Local@VContext@v8@@@2@@Z 10033350     node:node.exe
 0003:00001354       __imp_?New@ObjectTemplate@v8@@SA?AV?$Local@VObjectTemplate@v8@@@2@PAVIsolate@2@V?$Local@VFunctionTemplate@v8@@@2@@Z 10033354     node:node.exe
 0003:00001358       __imp_?NewFromUnsigned@Integer@v8@@SA?AV?$Local@VInteger@v8@@@2@PAVIsolate@2@I@Z 10033358     node:node.exe
 0003:0000135c       __imp_?New@Integer@v8@@SA?AV?$Local@VInteger@v8@@@2@PAVIsolate@2@H@Z 1003335c     node:node.exe
 0003:00001360       __imp_?Call@Function@v8@@QAE?AV?$Local@VValue@v8@@@2@V32@HQAV32@@Z 10033360     node:node.exe
 0003:00001364       __imp_?ThrowException@Isolate@v8@@QAE?AV?$Local@VValue@v8@@@2@V32@@Z 10033364     node:node.exe
 0003:00001368       __imp_?GetCurrentContext@Isolate@v8@@QAE?AV?$Local@VContext@v8@@@2@XZ 10033368     node:node.exe
 0003:0000136c       __imp_?GetCurrent@Isolate@v8@@SAPAV12@XZ 1003336c     node:node.exe
 0003:00001370       __imp_?Value@External@v8@@QBEPAXXZ 10033370     node:node.exe
 0003:00001374       __imp_?New@External@v8@@SA?AV?$Local@VExternal@v8@@@2@PAVIsolate@2@PAX@Z 10033374     node:node.exe
 0003:00001378       __imp_?ToObject@Value@v8@@QBE?AV?$Local@VObject@v8@@@2@XZ 10033378     node:node.exe
 0003:0000137c       __imp_?ToString@Value@v8@@QBE?AV?$Local@VString@v8@@@2@XZ 1003337c     node:node.exe
 0003:00001380       \177node_NULL_THUNK_DATA_DLA 10033380     node:node.exe
 0003:000013a0       __hmod__node_exe           100333a0     node:node.exe
 0003:000013b0       __aenvptr                  100333b0     LIBCMT:dllcrt0.obj
 0003:000013b4       __wenvptr                  100333b4     LIBCMT:dllcrt0.obj
 0003:000013b8       __cflush                   100333b8     LIBCMT:_file.obj
 0003:000013bc       ___fastflag                100333bc     LIBCMT:fpinit.obj
 0003:000016e0       ___isa_available           100336e0     LIBCMT:cpu_disp.obj
 0003:000016e4       ___favor                   100336e4     LIBCMT:cpu_disp.obj
 0003:000016e8       __crtheap                  100336e8     LIBCMT:heapinit.obj
 0003:000016ec       ?_pnhHeap@@3P6AHI@ZA       100336ec     LIBCMT:handler.obj
 0003:000016f0       __C_Exit_Done              100336f0     LIBCMT:crt0dat.obj
 0003:000016f4       ___argc                    100336f4     LIBCMT:crt0dat.obj
 0003:000016f8       ___argv                    100336f8     LIBCMT:crt0dat.obj
 0003:000016fc       ___wargv                   100336fc     LIBCMT:crt0dat.obj
 0003:00001700       __environ                  10033700     LIBCMT:crt0dat.obj
 0003:00001704       __wenviron                 10033704     LIBCMT:crt0dat.obj
 0003:00001708       __pgmptr                   10033708     LIBCMT:crt0dat.obj
 0003:0000170c       __wpgmptr                  1003370c     LIBCMT:crt0dat.obj
 0003:00001710       __umaskval                 10033710     LIBCMT:crt0dat.obj
 0003:00001714       __exitflag                 10033714     LIBCMT:crt0dat.obj
 0003:00001718       __C_Termination_Done       10033718     LIBCMT:crt0dat.obj
 0003:0000171c       ___winitenv                1003371c     LIBCMT:crt0dat.obj
 0003:00001720       ___initenv                 10033720     LIBCMT:crt0dat.obj
 0003:00001728       ___app_type                10033728     LIBCMT:crt0msg.obj
 0003:00001d58       __newmode                  10033d58     LIBCMT:_newmode.obj
 0003:00001d5c       ___pInvalidArgHandler      10033d5c     LIBCMT:invarg.obj
 0003:00001d60       ___error_mode              10033d60     LIBCMT:errmode.obj
 0003:00001d8c       __maxwait                  10033d8c     LIBCMT:crtheap.obj
 0003:00001d90       ___pPurecall               10033d90     LIBCMT:inithelp.obj
 0003:00001d94       ___mbcodepage              10033d94     LIBCMT:mbctype.obj
 0003:00001d98       ___ismbcodepage            10033d98     LIBCMT:mbctype.obj
 0003:00001d9c       ___mbulinfo                10033d9c     LIBCMT:mbctype.obj
 0003:00001da8       ___mblocalename            10033da8     LIBCMT:mbctype.obj
 0003:00001db0       ___locale_changed          10033db0     LIBCMT:wsetloca.obj
 0003:00001db8       ___pioinfo                 10033db8     LIBCMT:ioinit.obj
 0003:00002110       __stdbuf                   10034110     LIBCMT:_sftbuf.obj
 0003:00002118       ?__pInconsistency@@3P6AXXZA 10034118     LIBCMT:hooks.obj
 0003:0000211c       ?g_OutOfMemoryExceptionCallback@@3P6GPAXXZA 1003411c     LIBCMT:frame.obj
 0003:00002130       ___lconv_static_null       10034130     LIBCMT:lconv.obj
 0003:00002134       ___lconv_static_W_null     10034134     LIBCMT:lconv.obj
 0003:0000213c       ?pArgList@UnDecorator@@0PAVReplicator@@A 1003413c     LIBCMT:undname.obj
 0003:00002140       ?pZNameList@UnDecorator@@0PAVReplicator@@A 10034140     LIBCMT:undname.obj
 0003:00002144       ?pTemplateArgList@UnDecorator@@0PAVReplicator@@A 10034144     LIBCMT:undname.obj
 0003:00002148       ?gName@UnDecorator@@0PBDB  10034148     LIBCMT:undname.obj
 0003:0000214c       ?name@UnDecorator@@0PBDB   1003414c     LIBCMT:undname.obj
 0003:00002150       ?outputString@UnDecorator@@0PADA 10034150     LIBCMT:undname.obj
 0003:00002154       ?maxStringLength@UnDecorator@@0HA 10034154     LIBCMT:undname.obj
 0003:00002158       ?disableFlags@UnDecorator@@0KA 10034158     LIBCMT:undname.obj
 0003:0000215c       ?fExplicitTemplateParams@UnDecorator@@0_NA 1003415c     LIBCMT:undname.obj
 0003:0000215d       ?fGetTemplateArgumentList@UnDecorator@@0_NA 1003415d     LIBCMT:undname.obj
 0003:00002160       ?m_pGetParameter@UnDecorator@@0P6APADJ@ZA 10034160     LIBCMT:undname.obj
 0003:00002178       __outputformat             10034178     LIBCMT:outputformat.obj
 0003:0000217c       ___pfnDliFailureHook2      1003417c     DelayImp:delayhk1.obj
 0003:00002180       ?id@?$num_put@_WV?$back_insert_iterator@V?$basic_string@_WU?$char_traits@_W@std@@V?$allocator@_W@2@@std@@@std@@@std@@2V0locale@2@A 10034180     node-expat.obj
 0003:00002184       ?_System_object@?$_Error_objects@H@std@@2V_System_error_category@2@A 10034184     node-expat.obj
 0003:00002188       ?id@?$numpunct@_W@std@@2V0locale@2@A 10034188     node-expat.obj
 0003:0000218c       ?id@?$num_put@DV?$back_insert_iterator@V?$basic_string@DU?$char_traits@D@std@@V?$allocator@D@2@@std@@@std@@@std@@2V0locale@2@A 1003418c     node-expat.obj
 0003:00002190       ?_Generic_object@?$_Error_objects@H@std@@2V_Generic_error_category@2@A 10034190     node-expat.obj
 0003:00002194       ?id@?$numpunct@D@std@@2V0locale@2@A 10034194     node-expat.obj
 0003:0000219c       ?_Iostream_object@?$_Error_objects@H@std@@2V_Iostream_error_category@2@A 1003419c     node-expat.obj
 0003:000021a0       __debugger_hook_dummy      100341a0     <common>
 0003:000021c0       _encodedKERNEL32Functions  100341c0     <common>
 0003:00002244       __nhandle                  10034244     <common>
 0003:00002248       ___dyn_tls_init_callback   10034248     <common>
 0003:0000224c       ___onexitend               1003424c     <common>
 0003:00002250       ___onexitbegin             10034250     <common>
 0003:00002254       ___mbctype_initialized     10034254     <common>
 0003:00002258       ___env_initialized         10034258     <common>
 0003:00002260       __bufin                    10034260     <common>
 0003:00003260       ___piob                    10035260     <common>
 0003:00003264       __nstream                  10035264     <common>
 0003:00003268       __acmdln                   10035268     <common>

 entry point at        0001:00018b4c

 Static symbols

 0000:fffc6000       .debug$S                   10000000     node:node.exe
 0000:fffc6000       .debug$S                   10000000     node:node.exe
 0000:fffc6000       .debug$S                   10000000     node:node.exe
 0000:fffc6000       .debug$S                   10000000     node:node.exe
 0000:fffc6000       .debug$S                   10000000     node:node.exe
 0000:fffc6000       .debug$S                   10000000     node:node.exe
 0000:fffc6000       .debug$S                   10000000     node:node.exe
 0000:fffc6000       .debug$S                   10000000     node:node.exe
 0000:fffc6000       .debug$S                   10000000     node:node.exe
 0000:fffc6000       .debug$S                   10000000     node:node.exe
 0000:fffc6000       .debug$S                   10000000     node:node.exe
 0000:fffc6000       .debug$S                   10000000     node:node.exe
 0000:fffc6000       .debug$S                   10000000     node:node.exe
 0000:fffc6000       .debug$S                   10000000     node:node.exe
 0000:fffc6000       .debug$S                   10000000     node:node.exe
 0000:fffc6000       .debug$S                   10000000     node:node.exe
 0000:fffc6000       .debug$S                   10000000     node:node.exe
 0000:fffc6000       .debug$S                   10000000     node:node.exe
 0000:fffc6000       .debug$S                   10000000     node:node.exe
 0000:fffc6000       .debug$S                   10000000     node:node.exe
 0000:fffc6000       .debug$S                   10000000     node:node.exe
 0000:fffc6000       .debug$S                   10000000     node:node.exe
 0000:fffc6000       .debug$S                   10000000     node:node.exe
 0000:fffc6000       .debug$S                   10000000     node:node.exe
 0000:fffc6000       .debug$S                   10000000     node:node.exe
 0000:fffc6000       .debug$S                   10000000     node:node.exe
 0000:fffc6000       .debug$S                   10000000     node:node.exe
 0000:fffc6000       .debug$S                   10000000     node:node.exe
 0000:fffc6000       .debug$S                   10000000     node:node.exe
 0000:fffc6000       .debug$S                   10000000     node:node.exe
 0000:fffc6000       .debug$S                   10000000     node:node.exe
 0000:fffc6000       .debug$S                   10000000     node:node.exe
 0000:fffc6000       .debug$S                   10000000     node:node.exe
 0000:fffc6000       .debug$S                   10000000     node:node.exe
 0000:fffc6000       .debug$S                   10000000     node:node.exe
 0000:fffc6000       .debug$S                   10000000     node:node.exe
 0000:fffc6000       .debug$S                   10000000     node:node.exe
 0000:fffc6000       .debug$S                   10000000     node:node.exe
 0000:fffc6000       .debug$S                   10000000     node:node.exe
 0000:fffc6000       .debug$S                   10000000     node:node.exe
 0000:fffc6000       .debug$S                   10000000     node:node.exe
 0000:fffc6000       .debug$S                   10000000     node:node.exe
 0000:fffc6000       .debug$S                   10000000     node:node.exe
 0000:fffc6000       .debug$S                   10000000     node:node.exe
 0000:fffc6000       .debug$S                   10000000     node:node.exe
 0000:fffc6000       .debug$S                   10000000     node:node.exe
 0000:fffc6000       .debug$S                   10000000     kernel32:KERNEL32.dll
 0000:fffc6000       .debug$S                   10000000     kernel32:KERNEL32.dll
 0000:fffc6000       .debug$S                   10000000     kernel32:KERNEL32.dll
 0000:fffc6000       .debug$S                   10000000     kernel32:KERNEL32.dll
 0000:fffc6000       .debug$S                   10000000     kernel32:KERNEL32.dll
 0000:fffc6000       .debug$S                   10000000     kernel32:KERNEL32.dll
 0000:fffc6000       .debug$S                   10000000     kernel32:KERNEL32.dll
 0000:fffc6000       .debug$S                   10000000     kernel32:KERNEL32.dll
 0000:fffc6000       .debug$S                   10000000     kernel32:KERNEL32.dll
 0000:fffc6000       .debug$S                   10000000     kernel32:KERNEL32.dll
 0000:fffc6000       .debug$S                   10000000     kernel32:KERNEL32.dll
 0000:fffc6000       .debug$S                   10000000     kernel32:KERNEL32.dll
 0000:fffc6000       .debug$S                   10000000     kernel32:KERNEL32.dll
 0000:fffc6000       .debug$S                   10000000     kernel32:KERNEL32.dll
 0000:fffc6000       .debug$S                   10000000     kernel32:KERNEL32.dll
 0000:fffc6000       .debug$S                   10000000     kernel32:KERNEL32.dll
 0000:fffc6000       .debug$S                   10000000     kernel32:KERNEL32.dll
 0000:fffc6000       .debug$S                   10000000     kernel32:KERNEL32.dll
 0000:fffc6000       .debug$S                   10000000     kernel32:KERNEL32.dll
 0000:fffc6000       .debug$S                   10000000     kernel32:KERNEL32.dll
 0000:fffc6000       .debug$S                   10000000     kernel32:KERNEL32.dll
 0000:fffc6000       .debug$S                   10000000     kernel32:KERNEL32.dll
 0000:fffc6000       .debug$S                   10000000     kernel32:KERNEL32.dll
 0000:fffc6000       .debug$S                   10000000     kernel32:KERNEL32.dll
 0000:fffc6000       .debug$S                   10000000     kernel32:KERNEL32.dll
 0000:fffc6000       .debug$S                   10000000     node:node.exe
 0000:fffc6000       .debug$S                   10000000     node:node.exe
 0000:fffc6000       .debug$S                   10000000     node:node.exe
 0000:fffc6000       .debug$S                   10000000     node:node.exe
 0000:fffc6000       .debug$S                   10000000     node:node.exe
 0000:fffc6000       .debug$S                   10000000     node:node.exe
 0000:fffc6000       .debug$S                   10000000     node:node.exe
 0000:fffc6000       .debug$S                   10000000     node:node.exe
 0000:fffc6000       .debug$S                   10000000     node:node.exe
 0000:fffc6000       .debug$S                   10000000     node:node.exe
 0000:fffc6000       .debug$S                   10000000     node:node.exe
 0000:fffc6000       .debug$S                   10000000     node:node.exe
 0000:fffc6000       .debug$S                   10000000     node:node.exe
 0000:fffc6000       .debug$S                   10000000     node:node.exe
 0000:fffc6000       .debug$S                   10000000     node:node.exe
 0000:fffc6000       .debug$S                   10000000     node:node.exe
 0000:fffc6000       .debug$S                   10000000     node:node.exe
 0000:fffc6000       .debug$S                   10000000     node:node.exe
 0000:fffc6000       .debug$S                   10000000     node:node.exe
 0000:fffc6000       .debug$S                   10000000     kernel32:KERNEL32.dll
 0000:fffc6000       .debug$S                   10000000     kernel32:KERNEL32.dll
 0000:fffc6000       .debug$S                   10000000     kernel32:KERNEL32.dll
 0000:fffc6000       .debug$S                   10000000     kernel32:KERNEL32.dll
 0000:fffc6000       .debug$S                   10000000     kernel32:KERNEL32.dll
 0000:fffc6000       .debug$S                   10000000     kernel32:KERNEL32.dll
 0000:fffc6000       .debug$S                   10000000     kernel32:KERNEL32.dll
 0000:fffc6000       .debug$S                   10000000     kernel32:KERNEL32.dll
 0000:fffc6000       .debug$S                   10000000     kernel32:KERNEL32.dll
 0000:fffc6000       .debug$S                   10000000     kernel32:KERNEL32.dll
 0000:fffc6000       .debug$S                   10000000     kernel32:KERNEL32.dll
 0000:fffc6000       .debug$S                   10000000     kernel32:KERNEL32.dll
 0000:fffc6000       .debug$S                   10000000     kernel32:KERNEL32.dll
 0000:fffc6000       .debug$S                   10000000     kernel32:KERNEL32.dll
 0000:fffc6000       .debug$S                   10000000     kernel32:KERNEL32.dll
 0000:fffc6000       .debug$S                   10000000     kernel32:KERNEL32.dll
 0000:fffc6000       .debug$S                   10000000     kernel32:KERNEL32.dll
 0000:fffc6000       .debug$S                   10000000     kernel32:KERNEL32.dll
 0000:fffc6000       .debug$S                   10000000     kernel32:KERNEL32.dll
 0000:fffc6000       .debug$S                   10000000     kernel32:KERNEL32.dll
 0000:fffc6000       .debug$S                   10000000     kernel32:KERNEL32.dll
 0000:fffc6000       .debug$S                   10000000     kernel32:KERNEL32.dll
 0000:fffc6000       .debug$S                   10000000     kernel32:KERNEL32.dll
 0000:fffc6000       .debug$S                   10000000     kernel32:KERNEL32.dll
 0000:fffc6000       .debug$S                   10000000     kernel32:KERNEL32.dll
 0000:fffc6000       .debug$S                   10000000     kernel32:KERNEL32.dll
 0000:fffc6000       .debug$S                   10000000     kernel32:KERNEL32.dll
 0000:fffc6000       .debug$S                   10000000     kernel32:KERNEL32.dll
 0000:fffc6000       .debug$S                   10000000     kernel32:KERNEL32.dll
 0000:fffc6000       .debug$S                   10000000     kernel32:KERNEL32.dll
 0000:fffc6000       .debug$S                   10000000     kernel32:KERNEL32.dll
 0000:fffc6000       .debug$S                   10000000     kernel32:KERNEL32.dll
 0000:fffc6000       .debug$S                   10000000     kernel32:KERNEL32.dll
 0000:fffc6000       .debug$S                   10000000     kernel32:KERNEL32.dll
 0000:fffc6000       .debug$S                   10000000     kernel32:KERNEL32.dll
 0000:fffc6000       .debug$S                   10000000     kernel32:KERNEL32.dll
 0000:fffc6000       .debug$S                   10000000     kernel32:KERNEL32.dll
 0000:fffc6000       .debug$S                   10000000     kernel32:KERNEL32.dll
 0000:fffc6000       .debug$S                   10000000     kernel32:KERNEL32.dll
 0000:fffc6000       .debug$S                   10000000     kernel32:KERNEL32.dll
 0000:fffc6000       .debug$S                   10000000     kernel32:KERNEL32.dll
 0000:fffc6000       .debug$S                   10000000     kernel32:KERNEL32.dll
 0000:fffc6000       .debug$S                   10000000     kernel32:KERNEL32.dll
 0000:fffc6000       .debug$S                   10000000     kernel32:KERNEL32.dll
 0000:fffc6000       .debug$S                   10000000     kernel32:KERNEL32.dll
 0000:fffc6000       .debug$S                   10000000     kernel32:KERNEL32.dll
 0000:fffc6000       .debug$S                   10000000     kernel32:KERNEL32.dll
 0000:fffc6000       .debug$S                   10000000     kernel32:KERNEL32.dll
 0000:fffc6000       .debug$S                   10000000     kernel32:KERNEL32.dll
 0000:fffc6000       .debug$S                   10000000     kernel32:KERNEL32.dll
 0000:fffc6000       .debug$S                   10000000     kernel32:KERNEL32.dll
 0000:fffc6000       .debug$S                   10000000     kernel32:KERNEL32.dll
 0000:fffc6000       .debug$S                   10000000     kernel32:KERNEL32.dll
 0000:fffc6000       .debug$S                   10000000     kernel32:KERNEL32.dll
 0000:fffc6000       .debug$S                   10000000     kernel32:KERNEL32.dll
 0001:00000000       ??__Epiecewise_construct@std@@YAXXZ 10001000 f   node-expat.obj
 0001:00000010       ??__Eallocator_arg@std@@YAXXZ 10001010 f   node-expat.obj
 0001:00000020       ?FunctionCallbackWrapper@imp@Nan@@YAXABV?$FunctionCallbackInfo@VValue@v8@@@v8@@@Z 10001020 f   node-expat.obj
 0001:00002560       _init                      10003560 f   node-expat.obj
 0001:00002570       __register_node_expat      10003570 f   node-expat.obj
 0001:00002580       _load_exe_hook@8           10003580 f   win_delay_load_hook.obj
 0001:000025d0       _sip_round                 100035d0 f   libexpat:xmlparse.obj
 0001:000026d0       _sip24_init                100036d0 f   libexpat:xmlparse.obj
 0001:00002750       _sip24_update              10003750 f   libexpat:xmlparse.obj
 0001:00002850       _sip24_final               10003850 f   libexpat:xmlparse.obj
 0001:00002910       $LN14                      10003910     libexpat:xmlparse.obj
 0001:00002930       _ENTROPY_DEBUG             10003930 f   libexpat:xmlparse.obj
 0001:000029a0       _generate_hash_secret_salt 100039a0 f   libexpat:xmlparse.obj
 0001:00002a30       _get_hash_secret_salt      10003a30 f   libexpat:xmlparse.obj
 0001:00002a60       _startParsing              10003a60 f   libexpat:xmlparse.obj
 0001:00002a90       _parserCreate              10003a90 f   libexpat:xmlparse.obj
 0001:00002c60       _parserInit                10003c60 f   libexpat:xmlparse.obj
 0001:00003660       _storeRawNames             10004660 f   libexpat:xmlparse.obj
 0001:00003700       _contentProcessor          10004700 f   libexpat:xmlparse.obj
 0001:00003750       _externalEntityContentProcessor 10004750 f   libexpat:xmlparse.obj
 0001:000037a0       _doContent                 100047a0 f   libexpat:xmlparse.obj
 0001:000042f8       $LN229                     100052f8     libexpat:xmlparse.obj
 0001:00004350       _freeBindings              10005350 f   libexpat:xmlparse.obj
 0001:000043a0       _storeAtts                 100053a0 f   libexpat:xmlparse.obj
 0001:00004dc0       _addBinding                10005dc0 f   libexpat:xmlparse.obj
 0001:00004fd0       _cdataSectionProcessor     10005fd0 f   libexpat:xmlparse.obj
 0001:00005090       _doCdataSection            10006090 f   libexpat:xmlparse.obj
 0001:0000531c       $LN57                      1000631c     libexpat:xmlparse.obj
 0001:00005338       $LN48                      10006338     libexpat:xmlparse.obj
 0001:00005370       _ignoreSectionProcessor    10006370 f   libexpat:xmlparse.obj
 0001:000053d0       _doIgnoreSection           100063d0 f   libexpat:xmlparse.obj
 0001:000054e4       $LN21                      100064e4     libexpat:xmlparse.obj
 0001:000054f8       $LN17                      100064f8     libexpat:xmlparse.obj
 0001:00005530       _processXmlDecl            10006530 f   libexpat:xmlparse.obj
 0001:000057c0       _handleUnknownEncoding     100067c0 f   libexpat:xmlparse.obj
 0001:00005920       _prologInitProcessor       10006920 f   libexpat:xmlparse.obj
 0001:000059d0       _prologProcessor           100069d0 f   libexpat:xmlparse.obj
 0001:00005a30       _doProlog                  10006a30 f   libexpat:xmlparse.obj
 0001:00007230       $LN510                     10008230     libexpat:xmlparse.obj
 0001:00007248       $LN443                     10008248     libexpat:xmlparse.obj
 0001:00007258       $LN511                     10008258     libexpat:xmlparse.obj
 0001:00007350       _epilogProcessor           10008350 f   libexpat:xmlparse.obj
 0001:000074c4       $LN40                      100084c4     libexpat:xmlparse.obj
 0001:000074e8       $LN34                      100084e8     libexpat:xmlparse.obj
 0001:00007510       _processInternalEntity     10008510 f   libexpat:xmlparse.obj
 0001:00007650       _internalEntityProcessor   10008650 f   libexpat:xmlparse.obj
 0001:000077c0       _errorProcessor            100087c0 f   libexpat:xmlparse.obj
 0001:000077d0       _storeAttributeValue       100087d0 f   libexpat:xmlparse.obj
 0001:00007840       _appendAttributeValue      10008840 f   libexpat:xmlparse.obj
 0001:00007c10       $LN107                     10008c10     libexpat:xmlparse.obj
 0001:00007c34       $LN100                     10008c34     libexpat:xmlparse.obj
 0001:00007c60       _storeEntityValue          10008c60 f   libexpat:xmlparse.obj
 0001:00008068       $LN73                      10009068     libexpat:xmlparse.obj
 0001:0000808c       $LN69                      1000908c     libexpat:xmlparse.obj
 0001:000080b0       _normalizeLines            100090b0 f   libexpat:xmlparse.obj
 0001:000080f0       _reportProcessingInstruction 100090f0 f   libexpat:xmlparse.obj
 0001:00008210       _reportComment             10009210 f   libexpat:xmlparse.obj
 0001:000082c0       _reportDefault             100092c0 f   libexpat:xmlparse.obj
 0001:00008370       _defineAttribute           10009370 f   libexpat:xmlparse.obj
 0001:00008440       _setElementTypePrefix      10009440 f   libexpat:xmlparse.obj
 0001:00008500       _getAttributeId            10009500 f   libexpat:xmlparse.obj
 0001:000086f0       _getContext                100096f0 f   libexpat:xmlparse.obj
 0001:000089d0       _setContext                100099d0 f   libexpat:xmlparse.obj
 0001:00008c00       _normalizePublicId         10009c00 f   libexpat:xmlparse.obj
 0001:00008c50       _dtdCreate                 10009c50 f   libexpat:xmlparse.obj
 0001:00008db0       _dtdReset                  10009db0 f   libexpat:xmlparse.obj
 0001:00008f30       _dtdDestroy                10009f30 f   libexpat:xmlparse.obj
 0001:00009140       _hash                      1000a140 f   libexpat:xmlparse.obj
 0001:000091d0       _lookup                    1000a1d0 f   libexpat:xmlparse.obj
 0001:000094e0       _hashTableClear            1000a4e0 f   libexpat:xmlparse.obj
 0001:00009520       _poolClear                 1000a520 f   libexpat:xmlparse.obj
 0001:00009570       _poolDestroy               1000a570 f   libexpat:xmlparse.obj
 0001:000095c0       _poolAppend                1000a5c0 f   libexpat:xmlparse.obj
 0001:000097c0       _poolCopyString            1000a7c0 f   libexpat:xmlparse.obj
 0001:00009980       _poolAppendString          1000a980 f   libexpat:xmlparse.obj
 0001:00009b30       _poolStoreString           1000ab30 f   libexpat:xmlparse.obj
 0001:00009b60       _poolGrow                  1000ab60 f   libexpat:xmlparse.obj
 0001:00009cf0       _nextScaffoldPart          1000acf0 f   libexpat:xmlparse.obj
 0001:00009e20       _build_node                1000ae20 f   libexpat:xmlparse.obj
 0001:00009f40       _build_model               1000af40 f   libexpat:xmlparse.obj
 0001:00009fb0       _getElementType            1000afb0 f   libexpat:xmlparse.obj
 0001:0000a050       _error                     1000b050 f   libexpat:xmlrole.obj
 0001:0000a050       _isNever                   1000b050 f   libexpat:xmltok.obj
 0001:0000a060       _utf8_isName2              1000b060 f   libexpat:xmltok.obj
 0001:0000a0a0       _utf8_isName3              1000b0a0 f   libexpat:xmltok.obj
 0001:0000a0f0       _utf8_isNmstrt2            1000b0f0 f   libexpat:xmltok.obj
 0001:0000a130       _utf8_isNmstrt3            1000b130 f   libexpat:xmltok.obj
 0001:0000a180       _utf8_isInvalid2           1000b180 f   libexpat:xmltok.obj
 0001:0000a1a0       _utf8_isInvalid3           1000b1a0 f   libexpat:xmltok.obj
 0001:0000a220       _utf8_isInvalid4           1000b220 f   libexpat:xmltok.obj
 0001:0000a290       _normal_scanComment        1000b290 f   libexpat:xmltok.obj
 0001:0000a3a0       $LN41                      1000b3a0     libexpat:xmltok.obj
 0001:0000a3b8       $LN37                      1000b3b8     libexpat:xmltok.obj
 0001:0000a3e0       _normal_scanDecl           1000b3e0 f   libexpat:xmltok.obj
 0001:0000a4b0       $LN30                      1000b4b0     libexpat:xmltok.obj
 0001:0000a4d0       $LN31                      1000b4d0     libexpat:xmltok.obj
 0001:0000a4e0       $LN25                      1000b4e0     libexpat:xmltok.obj
 0001:0000a4f8       $LN32                      1000b4f8     libexpat:xmltok.obj
 0001:0000a500       $LN26                      1000b500     libexpat:xmltok.obj
 0001:0000a520       _normal_checkPiTarget      1000b520 f   libexpat:xmltok.obj
 0001:0000a580       _normal_scanPi             1000b580 f   libexpat:xmltok.obj
 0001:0000a83c       $LN134                     1000b83c     libexpat:xmltok.obj
 0001:0000a854       $LN126                     1000b854     libexpat:xmltok.obj
 0001:0000a870       $LN135                     1000b870     libexpat:xmltok.obj
 0001:0000a890       $LN127                     1000b890     libexpat:xmltok.obj
 0001:0000a8ac       $LN136                     1000b8ac     libexpat:xmltok.obj
 0001:0000a8c4       $LN128                     1000b8c4     libexpat:xmltok.obj
 0001:0000a8e0       _normal_cdataSectionTok    1000b8e0 f   libexpat:xmltok.obj
 0001:0000aa9c       $LN56                      1000ba9c     libexpat:xmltok.obj
 0001:0000aac8       $LN57                      1000bac8     libexpat:xmltok.obj
 0001:0000aadc       $LN51                      1000badc     libexpat:xmltok.obj
 0001:0000aaf0       _normal_scanEndTag         1000baf0 f   libexpat:xmltok.obj
 0001:0000aca0       $LN67                      1000bca0     libexpat:xmltok.obj
 0001:0000acb8       $LN61                      1000bcb8     libexpat:xmltok.obj
 0001:0000acd4       $LN68                      1000bcd4     libexpat:xmltok.obj
 0001:0000acf4       $LN62                      1000bcf4     libexpat:xmltok.obj
 0001:0000ad10       $LN69                      1000bd10     libexpat:xmltok.obj
 0001:0000ad1c       $LN63                      1000bd1c     libexpat:xmltok.obj
 0001:0000ad30       _normal_scanHexCharRef     1000bd30 f   libexpat:xmltok.obj
 0001:0000ad90       _normal_scanCharRef        1000bd90 f   libexpat:xmltok.obj
 0001:0000ae00       _normal_scanRef            1000be00 f   libexpat:xmltok.obj
 0001:0000af80       $LN53                      1000bf80     libexpat:xmltok.obj
 0001:0000af9c       $LN48                      1000bf9c     libexpat:xmltok.obj
 0001:0000afb8       $LN54                      1000bfb8     libexpat:xmltok.obj
 0001:0000afd4       $LN49                      1000bfd4     libexpat:xmltok.obj
 0001:0000aff0       _normal_scanAtts           1000bff0 f   libexpat:xmltok.obj
 0001:0000b36c       $LN190                     1000c36c     libexpat:xmltok.obj
 0001:0000b390       $LN170                     1000c390     libexpat:xmltok.obj
 0001:0000b3ac       $LN191                     1000c3ac     libexpat:xmltok.obj
 0001:0000b3c4       $LN171                     1000c3c4     libexpat:xmltok.obj
 0001:0000b3e0       $LN192                     1000c3e0     libexpat:xmltok.obj
 0001:0000b404       $LN193                     1000c404     libexpat:xmltok.obj
 0001:0000b414       $LN172                     1000c414     libexpat:xmltok.obj
 0001:0000b424       $LN194                     1000c424     libexpat:xmltok.obj
 0001:0000b448       $LN173                     1000c448     libexpat:xmltok.obj
 0001:0000b470       _normal_scanLt             1000c470 f   libexpat:xmltok.obj
 0001:0000b7e0       $LN139                     1000c7e0     libexpat:xmltok.obj
 0001:0000b804       $LN121                     1000c804     libexpat:xmltok.obj
 0001:0000b820       $LN140                     1000c820     libexpat:xmltok.obj
 0001:0000b848       $LN122                     1000c848     libexpat:xmltok.obj
 0001:0000b864       $LN141                     1000c864     libexpat:xmltok.obj
 0001:0000b87c       $LN123                     1000c87c     libexpat:xmltok.obj
 0001:0000b898       $LN142                     1000c898     libexpat:xmltok.obj
 0001:0000b8bc       $LN124                     1000c8bc     libexpat:xmltok.obj
 0001:0000b8e0       _normal_contentTok         1000c8e0 f   libexpat:xmltok.obj
 0001:0000bae4       $LN63                      1000cae4     libexpat:xmltok.obj
 0001:0000bb10       $LN64                      1000cb10     libexpat:xmltok.obj
 0001:0000bb24       $LN58                      1000cb24     libexpat:xmltok.obj
 0001:0000bb30       _normal_scanPercent        1000cb30 f   libexpat:xmltok.obj
 0001:0000bca8       $LN53                      1000cca8     libexpat:xmltok.obj
 0001:0000bcc4       $LN48                      1000ccc4     libexpat:xmltok.obj
 0001:0000bce0       $LN54                      1000cce0     libexpat:xmltok.obj
 0001:0000bcfc       $LN49                      1000ccfc     libexpat:xmltok.obj
 0001:0000bd20       _normal_scanPoundName      1000cd20 f   libexpat:xmltok.obj
 0001:0000be88       $LN52                      1000ce88     libexpat:xmltok.obj
 0001:0000bea0       $LN47                      1000cea0     libexpat:xmltok.obj
 0001:0000bebc       $LN53                      1000cebc     libexpat:xmltok.obj
 0001:0000bed8       $LN48                      1000ced8     libexpat:xmltok.obj
 0001:0000bf00       _normal_scanLit            1000cf00 f   libexpat:xmltok.obj
 0001:0000c020       $LN38                      1000d020     libexpat:xmltok.obj
 0001:0000c038       $LN35                      1000d038     libexpat:xmltok.obj
 0001:0000c048       $LN39                      1000d048     libexpat:xmltok.obj
 0001:0000c050       $LN36                      1000d050     libexpat:xmltok.obj
 0001:0000c070       _normal_prologTok          1000d070 f   libexpat:xmltok.obj
 0001:0000c520       $LN149                     1000d520     libexpat:xmltok.obj
 0001:0000c574       $LN134                     1000d574     libexpat:xmltok.obj
 0001:0000c598       $LN150                     1000d598     libexpat:xmltok.obj
 0001:0000c5a8       $LN135                     1000d5a8     libexpat:xmltok.obj
 0001:0000c5c4       $LN151                     1000d5c4     libexpat:xmltok.obj
 0001:0000c5d8       $LN136                     1000d5d8     libexpat:xmltok.obj
 0001:0000c5f4       $LN152                     1000d5f4     libexpat:xmltok.obj
 0001:0000c620       $LN137                     1000d620     libexpat:xmltok.obj
 0001:0000c640       $LN153                     1000d640     libexpat:xmltok.obj
 0001:0000c658       $LN138                     1000d658     libexpat:xmltok.obj
 0001:0000c680       _normal_attributeValueTok  1000d680 f   libexpat:xmltok.obj
 0001:0000c780       $LN34                      1000d780     libexpat:xmltok.obj
 0001:0000c7a4       $LN29                      1000d7a4     libexpat:xmltok.obj
 0001:0000c7c0       _normal_entityValueTok     1000d7c0 f   libexpat:xmltok.obj
 0001:0000c8c0       $LN33                      1000d8c0     libexpat:xmltok.obj
 0001:0000c8e0       $LN28                      1000d8e0     libexpat:xmltok.obj
 0001:0000c900       _normal_ignoreSectionTok   1000d900 f   libexpat:xmltok.obj
 0001:0000ca14       $LN48                      1000da14     libexpat:xmltok.obj
 0001:0000ca40       _normal_isPublicId         1000da40 f   libexpat:xmltok.obj
 0001:0000cab0       $LN27                      1000dab0     libexpat:xmltok.obj
 0001:0000cac0       $LN25                      1000dac0     libexpat:xmltok.obj
 0001:0000cae0       _normal_getAtts            1000dae0 f   libexpat:xmltok.obj
 0001:0000cca4       $LN55                      1000dca4     libexpat:xmltok.obj
 0001:0000ccd0       $LN52                      1000dcd0     libexpat:xmltok.obj
 0001:0000ccf0       _normal_charRefNumber      1000dcf0 f   libexpat:xmltok.obj
 0001:0000cdbc       $LN43                      1000ddbc     libexpat:xmltok.obj
 0001:0000cdcc       $LN39                      1000ddcc     libexpat:xmltok.obj
 0001:0000ce10       _normal_predefinedEntityName 1000de10 f   libexpat:xmltok.obj
 0001:0000cea0       _normal_sameName           1000dea0 f   libexpat:xmltok.obj
 0001:0000cf44       $LN42                      1000df44     libexpat:xmltok.obj
 0001:0000cf58       $LN37                      1000df58     libexpat:xmltok.obj
 0001:0000cf74       $LN43                      1000df74     libexpat:xmltok.obj
 0001:0000cf7c       $LN38                      1000df7c     libexpat:xmltok.obj
 0001:0000cfa0       _normal_nameMatchesAscii   1000dfa0 f   libexpat:xmltok.obj
 0001:0000cfe0       _normal_nameLength         1000dfe0 f   libexpat:xmltok.obj
 0001:0000d034       $LN18                      1000e034     libexpat:xmltok.obj
 0001:0000d048       $LN15                      1000e048     libexpat:xmltok.obj
 0001:0000d070       _normal_skipS              1000e070 f   libexpat:xmltok.obj
 0001:0000d0a0       _normal_updatePosition     1000e0a0 f   libexpat:xmltok.obj
 0001:0000d12c       $LN19                      1000e12c     libexpat:xmltok.obj
 0001:0000d1d0       _utf8_toUtf8               1000e1d0 f   libexpat:xmltok.obj
 0001:0000d240       _utf8_toUtf16              1000e240 f   libexpat:xmltok.obj
 0001:0000d400       _latin1_toUtf8             1000e400 f   libexpat:xmltok.obj
 0001:0000d470       _latin1_toUtf16            1000e470 f   libexpat:xmltok.obj
 0001:0000d4c0       _ascii_toUtf8              1000e4c0 f   libexpat:xmltok.obj
 0001:0000d510       _unicode_byte_type         1000e510 f   libexpat:xmltok.obj
 0001:0000d548       $LN13                      1000e548     libexpat:xmltok.obj
 0001:0000d558       $LN11                      1000e558     libexpat:xmltok.obj
 0001:0000d580       _little2_toUtf8            1000e580 f   libexpat:xmltok.obj
 0001:0000d704       $LN35                      1000e704     libexpat:xmltok.obj
 0001:0000d714       $LN30                      1000e714     libexpat:xmltok.obj
 0001:0000d7f0       _little2_toUtf16           1000e7f0 f   libexpat:xmltok.obj
 0001:0000d880       _big2_toUtf8               1000e880 f   libexpat:xmltok.obj
 0001:0000da04       $LN35                      1000ea04     libexpat:xmltok.obj
 0001:0000da14       $LN30                      1000ea14     libexpat:xmltok.obj
 0001:0000daf0       _big2_toUtf16              1000eaf0 f   libexpat:xmltok.obj
 0001:0000db80       _little2_scanComment       1000eb80 f   libexpat:xmltok.obj
 0001:0000dc68       $LN41                      1000ec68     libexpat:xmltok.obj
 0001:0000dc80       $LN38                      1000ec80     libexpat:xmltok.obj
 0001:0000dca0       _little2_scanDecl          1000eca0 f   libexpat:xmltok.obj
 0001:0000ddc4       $LN35                      1000edc4     libexpat:xmltok.obj
 0001:0000dde4       $LN36                      1000ede4     libexpat:xmltok.obj
 0001:0000ddf4       $LN31                      1000edf4     libexpat:xmltok.obj
 0001:0000de0c       $LN37                      1000ee0c     libexpat:xmltok.obj
 0001:0000de14       $LN32                      1000ee14     libexpat:xmltok.obj
 0001:0000de30       _little2_checkPiTarget     1000ee30 f   libexpat:xmltok.obj
 0001:0000deb0       _little2_scanPi            1000eeb0 f   libexpat:xmltok.obj
 0001:0000e14c       $LN143                     1000f14c     libexpat:xmltok.obj
 0001:0000e164       $LN136                     1000f164     libexpat:xmltok.obj
 0001:0000e180       $LN144                     1000f180     libexpat:xmltok.obj
 0001:0000e1a0       $LN137                     1000f1a0     libexpat:xmltok.obj
 0001:0000e1bc       $LN145                     1000f1bc     libexpat:xmltok.obj
 0001:0000e1d4       $LN138                     1000f1d4     libexpat:xmltok.obj
 0001:0000e1f0       _little2_cdataSectionTok   1000f1f0 f   libexpat:xmltok.obj
 0001:0000e394       $LN62                      1000f394     libexpat:xmltok.obj
 0001:0000e3c0       $LN63                      1000f3c0     libexpat:xmltok.obj
 0001:0000e3d4       $LN56                      1000f3d4     libexpat:xmltok.obj
 0001:0000e3e0       _little2_scanEndTag        1000f3e0 f   libexpat:xmltok.obj
 0001:0000e5b4       $LN67                      1000f5b4     libexpat:xmltok.obj
 0001:0000e5cc       $LN62                      1000f5cc     libexpat:xmltok.obj
 0001:0000e5e8       $LN68                      1000f5e8     libexpat:xmltok.obj
 0001:0000e608       $LN63                      1000f608     libexpat:xmltok.obj
 0001:0000e624       $LN69                      1000f624     libexpat:xmltok.obj
 0001:0000e630       $LN64                      1000f630     libexpat:xmltok.obj
 0001:0000e640       _little2_scanHexCharRef    1000f640 f   libexpat:xmltok.obj
 0001:0000e6e0       _little2_scanCharRef       1000f6e0 f   libexpat:xmltok.obj
 0001:0000e790       _little2_scanRef           1000f790 f   libexpat:xmltok.obj
 0001:0000e920       $LN51                      1000f920     libexpat:xmltok.obj
 0001:0000e93c       $LN47                      1000f93c     libexpat:xmltok.obj
 0001:0000e958       $LN52                      1000f958     libexpat:xmltok.obj
 0001:0000e974       $LN48                      1000f974     libexpat:xmltok.obj
 0001:0000e990       _little2_scanAtts          1000f990 f   libexpat:xmltok.obj
 0001:0000ee58       $LN231                     1000fe58     libexpat:xmltok.obj
 0001:0000ee68       $LN211                     1000fe68     libexpat:xmltok.obj
 0001:0000ee90       $LN232                     1000fe90     libexpat:xmltok.obj
 0001:0000eeb4       $LN212                     1000feb4     libexpat:xmltok.obj
 0001:0000eed0       $LN233                     1000fed0     libexpat:xmltok.obj
 0001:0000eee8       $LN213                     1000fee8     libexpat:xmltok.obj
 0001:0000ef04       $LN234                     1000ff04     libexpat:xmltok.obj
 0001:0000ef14       $LN214                     1000ff14     libexpat:xmltok.obj
 0001:0000ef3c       $LN235                     1000ff3c     libexpat:xmltok.obj
 0001:0000ef4c       $LN215                     1000ff4c     libexpat:xmltok.obj
 0001:0000ef74       $LN236                     1000ff74     libexpat:xmltok.obj
 0001:0000ef84       $LN216                     1000ff84     libexpat:xmltok.obj
 0001:0000efac       $LN237                     1000ffac     libexpat:xmltok.obj
 0001:0000efd0       $LN238                     1000ffd0     libexpat:xmltok.obj
 0001:0000efe0       $LN217                     1000ffe0     libexpat:xmltok.obj
 0001:0000eff0       $LN239                     1000fff0     libexpat:xmltok.obj
 0001:0000f014       $LN218                     10010014     libexpat:xmltok.obj
 0001:0000f030       _little2_scanLt            10010030 f   libexpat:xmltok.obj
 0001:0000f3f0       $LN132                     100103f0     libexpat:xmltok.obj
 0001:0000f414       $LN123                     10010414     libexpat:xmltok.obj
 0001:0000f430       $LN133                     10010430     libexpat:xmltok.obj
 0001:0000f458       $LN124                     10010458     libexpat:xmltok.obj
 0001:0000f474       $LN134                     10010474     libexpat:xmltok.obj
 0001:0000f48c       $LN125                     1001048c     libexpat:xmltok.obj
 0001:0000f4a8       $LN135                     100104a8     libexpat:xmltok.obj
 0001:0000f4cc       $LN126                     100104cc     libexpat:xmltok.obj
 0001:0000f4f0       _little2_contentTok        100104f0 f   libexpat:xmltok.obj
 0001:0000f6d8       $LN71                      100106d8     libexpat:xmltok.obj
 0001:0000f704       $LN72                      10010704     libexpat:xmltok.obj
 0001:0000f718       $LN65                      10010718     libexpat:xmltok.obj
 0001:0000f730       _little2_scanPercent       10010730 f   libexpat:xmltok.obj
 0001:0000f8c4       $LN52                      100108c4     libexpat:xmltok.obj
 0001:0000f8e0       $LN47                      100108e0     libexpat:xmltok.obj
 0001:0000f8fc       $LN53                      100108fc     libexpat:xmltok.obj
 0001:0000f918       $LN48                      10010918     libexpat:xmltok.obj
 0001:0000f940       _little2_scanPoundName     10010940 f   libexpat:xmltok.obj
 0001:0000fac0       $LN51                      10010ac0     libexpat:xmltok.obj
 0001:0000fad8       $LN46                      10010ad8     libexpat:xmltok.obj
 0001:0000faf4       $LN52                      10010af4     libexpat:xmltok.obj
 0001:0000fb10       $LN47                      10010b10     libexpat:xmltok.obj
 0001:0000fb30       _little2_scanLit           10010b30 f   libexpat:xmltok.obj
 0001:0000fc50       $LN50                      10010c50     libexpat:xmltok.obj
 0001:0000fc60       $LN46                      10010c60     libexpat:xmltok.obj
 0001:0000fc88       $LN51                      10010c88     libexpat:xmltok.obj
 0001:0000fca0       $LN47                      10010ca0     libexpat:xmltok.obj
 0001:0000fcb0       $LN52                      10010cb0     libexpat:xmltok.obj
 0001:0000fcb8       $LN48                      10010cb8     libexpat:xmltok.obj
 0001:0000fcd0       _little2_prologTok         10010cd0 f   libexpat:xmltok.obj
 0001:000101bc       $LN149                     100111bc     libexpat:xmltok.obj
 0001:00010210       $LN136                     10011210     libexpat:xmltok.obj
 0001:00010234       $LN150                     10011234     libexpat:xmltok.obj
 0001:00010244       $LN137                     10011244     libexpat:xmltok.obj
 0001:00010260       $LN151                     10011260     libexpat:xmltok.obj
 0001:00010274       $LN138                     10011274     libexpat:xmltok.obj
 0001:00010290       $LN152                     10011290     libexpat:xmltok.obj
 0001:000102bc       $LN139                     100112bc     libexpat:xmltok.obj
 0001:000102dc       $LN153                     100112dc     libexpat:xmltok.obj
 0001:000102f4       $LN140                     100112f4     libexpat:xmltok.obj
 0001:00010310       _little2_attributeValueTok 10011310 f   libexpat:xmltok.obj
 0001:00010448       $LN38                      10011448     libexpat:xmltok.obj
 0001:0001046c       $LN33                      1001146c     libexpat:xmltok.obj
 0001:00010480       _little2_entityValueTok    10011480 f   libexpat:xmltok.obj
 0001:000105b0       $LN37                      100115b0     libexpat:xmltok.obj
 0001:000105d0       $LN32                      100115d0     libexpat:xmltok.obj
 0001:000105f0       _little2_ignoreSectionTok  100115f0 f   libexpat:xmltok.obj
 0001:0001074c       $LN59                      1001174c     libexpat:xmltok.obj
 0001:0001075c       $LN56                      1001175c     libexpat:xmltok.obj
 0001:00010784       $LN60                      10011784     libexpat:xmltok.obj
 0001:000107b0       _little2_isPublicId        100117b0 f   libexpat:xmltok.obj
 0001:00010880       $LN45                      10011880     libexpat:xmltok.obj
 0001:00010890       $LN42                      10011890     libexpat:xmltok.obj
 0001:000108b8       $LN46                      100118b8     libexpat:xmltok.obj
 0001:000108c8       $LN43                      100118c8     libexpat:xmltok.obj
 0001:000108f0       _little2_getAtts           100118f0 f   libexpat:xmltok.obj
 0001:00010b48       $LN77                      10011b48     libexpat:xmltok.obj
 0001:00010b58       $LN71                      10011b58     libexpat:xmltok.obj
 0001:00010b80       $LN78                      10011b80     libexpat:xmltok.obj
 0001:00010ba8       $LN72                      10011ba8     libexpat:xmltok.obj
 0001:00010bd0       _little2_charRefNumber     10011bd0 f   libexpat:xmltok.obj
 0001:00010cac       $LN57                      10011cac     libexpat:xmltok.obj
 0001:00010cbc       $LN47                      10011cbc     libexpat:xmltok.obj
 0001:00010d00       _little2_predefinedEntityName 10011d00 f   libexpat:xmltok.obj
 0001:00010e10       _little2_sameName          10011e10 f   libexpat:xmltok.obj
 0001:00010f10       $LN55                      10011f10     libexpat:xmltok.obj
 0001:00010f20       $LN51                      10011f20     libexpat:xmltok.obj
 0001:00010f48       $LN56                      10011f48     libexpat:xmltok.obj
 0001:00010f5c       $LN52                      10011f5c     libexpat:xmltok.obj
 0001:00010f78       $LN57                      10011f78     libexpat:xmltok.obj
 0001:00010f80       $LN53                      10011f80     libexpat:xmltok.obj
 0001:00010fa0       _little2_nameMatchesAscii  10011fa0 f   libexpat:xmltok.obj
 0001:00010ff0       _little2_nameLength        10011ff0 f   libexpat:xmltok.obj
 0001:00011078       $LN30                      10012078     libexpat:xmltok.obj
 0001:00011088       $LN27                      10012088     libexpat:xmltok.obj
 0001:000110b0       $LN31                      100120b0     libexpat:xmltok.obj
 0001:000110c0       $LN28                      100120c0     libexpat:xmltok.obj
 0001:000110e0       _little2_skipS             100120e0 f   libexpat:xmltok.obj
 0001:00011128       $LN29                      10012128     libexpat:xmltok.obj
 0001:00011130       $LN27                      10012130     libexpat:xmltok.obj
 0001:00011160       _little2_updatePosition    10012160 f   libexpat:xmltok.obj
 0001:0001124c       $LN34                      1001224c     libexpat:xmltok.obj
 0001:0001125c       $LN32                      1001225c     libexpat:xmltok.obj
 0001:00011284       $LN35                      10012284     libexpat:xmltok.obj
 0001:000112a0       _big2_scanComment          100122a0 f   libexpat:xmltok.obj
 0001:00011388       $LN41                      10012388     libexpat:xmltok.obj
 0001:000113a0       $LN38                      100123a0     libexpat:xmltok.obj
 0001:000113c0       _big2_scanDecl             100123c0 f   libexpat:xmltok.obj
 0001:000114e4       $LN35                      100124e4     libexpat:xmltok.obj
 0001:00011504       $LN36                      10012504     libexpat:xmltok.obj
 0001:00011514       $LN31                      10012514     libexpat:xmltok.obj
 0001:0001152c       $LN37                      1001252c     libexpat:xmltok.obj
 0001:00011534       $LN32                      10012534     libexpat:xmltok.obj
 0001:00011550       _big2_checkPiTarget        10012550 f   libexpat:xmltok.obj
 0001:000115d0       _big2_scanPi               100125d0 f   libexpat:xmltok.obj
 0001:0001186c       $LN143                     1001286c     libexpat:xmltok.obj
 0001:00011884       $LN136                     10012884     libexpat:xmltok.obj
 0001:000118a0       $LN144                     100128a0     libexpat:xmltok.obj
 0001:000118c0       $LN137                     100128c0     libexpat:xmltok.obj
 0001:000118dc       $LN145                     100128dc     libexpat:xmltok.obj
 0001:000118f4       $LN138                     100128f4     libexpat:xmltok.obj
 0001:00011910       _big2_cdataSectionTok      10012910 f   libexpat:xmltok.obj
 0001:00011ab8       $LN62                      10012ab8     libexpat:xmltok.obj
 0001:00011ae4       $LN63                      10012ae4     libexpat:xmltok.obj
 0001:00011af8       $LN56                      10012af8     libexpat:xmltok.obj
 0001:00011b10       _big2_scanEndTag           10012b10 f   libexpat:xmltok.obj
 0001:00011ce4       $LN67                      10012ce4     libexpat:xmltok.obj
 0001:00011cfc       $LN62                      10012cfc     libexpat:xmltok.obj
 0001:00011d18       $LN68                      10012d18     libexpat:xmltok.obj
 0001:00011d38       $LN63                      10012d38     libexpat:xmltok.obj
 0001:00011d54       $LN69                      10012d54     libexpat:xmltok.obj
 0001:00011d60       $LN64                      10012d60     libexpat:xmltok.obj
 0001:00011d70       _big2_scanHexCharRef       10012d70 f   libexpat:xmltok.obj
 0001:00011e10       _big2_scanCharRef          10012e10 f   libexpat:xmltok.obj
 0001:00011ec0       _big2_scanRef              10012ec0 f   libexpat:xmltok.obj
 0001:00012050       $LN51                      10013050     libexpat:xmltok.obj
 0001:0001206c       $LN47                      1001306c     libexpat:xmltok.obj
 0001:00012088       $LN52                      10013088     libexpat:xmltok.obj
 0001:000120a4       $LN48                      100130a4     libexpat:xmltok.obj
 0001:000120c0       _big2_scanAtts             100130c0 f   libexpat:xmltok.obj
 0001:00012588       $LN231                     10013588     libexpat:xmltok.obj
 0001:00012598       $LN211                     10013598     libexpat:xmltok.obj
 0001:000125c0       $LN232                     100135c0     libexpat:xmltok.obj
 0001:000125e4       $LN212                     100135e4     libexpat:xmltok.obj
 0001:00012600       $LN233                     10013600     libexpat:xmltok.obj
 0001:00012618       $LN213                     10013618     libexpat:xmltok.obj
 0001:00012634       $LN234                     10013634     libexpat:xmltok.obj
 0001:00012644       $LN214                     10013644     libexpat:xmltok.obj
 0001:0001266c       $LN235                     1001366c     libexpat:xmltok.obj
 0001:0001267c       $LN215                     1001367c     libexpat:xmltok.obj
 0001:000126a4       $LN236                     100136a4     libexpat:xmltok.obj
 0001:000126b4       $LN216                     100136b4     libexpat:xmltok.obj
 0001:000126dc       $LN237                     100136dc     libexpat:xmltok.obj
 0001:00012700       $LN238                     10013700     libexpat:xmltok.obj
 0001:00012710       $LN217                     10013710     libexpat:xmltok.obj
 0001:00012720       $LN239                     10013720     libexpat:xmltok.obj
 0001:00012744       $LN218                     10013744     libexpat:xmltok.obj
 0001:00012760       _big2_scanLt               10013760 f   libexpat:xmltok.obj
 0001:00012b20       $LN132                     10013b20     libexpat:xmltok.obj
 0001:00012b44       $LN123                     10013b44     libexpat:xmltok.obj
 0001:00012b60       $LN133                     10013b60     libexpat:xmltok.obj
 0001:00012b88       $LN124                     10013b88     libexpat:xmltok.obj
 0001:00012ba4       $LN134                     10013ba4     libexpat:xmltok.obj
 0001:00012bbc       $LN125                     10013bbc     libexpat:xmltok.obj
 0001:00012bd8       $LN135                     10013bd8     libexpat:xmltok.obj
 0001:00012bfc       $LN126                     10013bfc     libexpat:xmltok.obj
 0001:00012c20       _big2_contentTok           10013c20 f   libexpat:xmltok.obj
 0001:00012e0c       $LN71                      10013e0c     libexpat:xmltok.obj
 0001:00012e38       $LN72                      10013e38     libexpat:xmltok.obj
 0001:00012e4c       $LN65                      10013e4c     libexpat:xmltok.obj
 0001:00012e60       _big2_scanPercent          10013e60 f   libexpat:xmltok.obj
 0001:00012ff4       $LN52                      10013ff4     libexpat:xmltok.obj
 0001:00013010       $LN47                      10014010     libexpat:xmltok.obj
 0001:0001302c       $LN53                      1001402c     libexpat:xmltok.obj
 0001:00013048       $LN48                      10014048     libexpat:xmltok.obj
 0001:00013070       _big2_scanPoundName        10014070 f   libexpat:xmltok.obj
 0001:000131f0       $LN51                      100141f0     libexpat:xmltok.obj
 0001:00013208       $LN46                      10014208     libexpat:xmltok.obj
 0001:00013224       $LN52                      10014224     libexpat:xmltok.obj
 0001:00013240       $LN47                      10014240     libexpat:xmltok.obj
 0001:00013260       _big2_scanLit              10014260 f   libexpat:xmltok.obj
 0001:00013384       $LN50                      10014384     libexpat:xmltok.obj
 0001:00013394       $LN46                      10014394     libexpat:xmltok.obj
 0001:000133bc       $LN51                      100143bc     libexpat:xmltok.obj
 0001:000133d4       $LN47                      100143d4     libexpat:xmltok.obj
 0001:000133e4       $LN52                      100143e4     libexpat:xmltok.obj
 0001:000133ec       $LN48                      100143ec     libexpat:xmltok.obj
 0001:00013410       _big2_prologTok            10014410 f   libexpat:xmltok.obj
 0001:000138fc       $LN149                     100148fc     libexpat:xmltok.obj
 0001:00013950       $LN136                     10014950     libexpat:xmltok.obj
 0001:00013974       $LN150                     10014974     libexpat:xmltok.obj
 0001:00013984       $LN137                     10014984     libexpat:xmltok.obj
 0001:000139a0       $LN151                     100149a0     libexpat:xmltok.obj
 0001:000139b4       $LN138                     100149b4     libexpat:xmltok.obj
 0001:000139d0       $LN152                     100149d0     libexpat:xmltok.obj
 0001:000139fc       $LN139                     100149fc     libexpat:xmltok.obj
 0001:00013a1c       $LN153                     10014a1c     libexpat:xmltok.obj
 0001:00013a34       $LN140                     10014a34     libexpat:xmltok.obj
 0001:00013a50       _big2_attributeValueTok    10014a50 f   libexpat:xmltok.obj
 0001:00013b88       $LN38                      10014b88     libexpat:xmltok.obj
 0001:00013bac       $LN33                      10014bac     libexpat:xmltok.obj
 0001:00013bc0       _big2_entityValueTok       10014bc0 f   libexpat:xmltok.obj
 0001:00013cf0       $LN37                      10014cf0     libexpat:xmltok.obj
 0001:00013d10       $LN32                      10014d10     libexpat:xmltok.obj
 0001:00013d30       _big2_ignoreSectionTok     10014d30 f   libexpat:xmltok.obj
 0001:00013e8c       $LN59                      10014e8c     libexpat:xmltok.obj
 0001:00013e9c       $LN56                      10014e9c     libexpat:xmltok.obj
 0001:00013ec4       $LN60                      10014ec4     libexpat:xmltok.obj
 0001:00013ef0       _big2_isPublicId           10014ef0 f   libexpat:xmltok.obj
 0001:00013fc4       $LN45                      10014fc4     libexpat:xmltok.obj
 0001:00013fd4       $LN42                      10014fd4     libexpat:xmltok.obj
 0001:00013ffc       $LN46                      10014ffc     libexpat:xmltok.obj
 0001:0001400c       $LN43                      1001500c     libexpat:xmltok.obj
 0001:00014030       _big2_getAtts              10015030 f   libexpat:xmltok.obj
 0001:0001427c       $LN76                      1001527c     libexpat:xmltok.obj
 0001:0001428c       $LN71                      1001528c     libexpat:xmltok.obj
 0001:000142b4       $LN77                      100152b4     libexpat:xmltok.obj
 0001:000142dc       $LN72                      100152dc     libexpat:xmltok.obj
 0001:00014300       _big2_charRefNumber        10015300 f   libexpat:xmltok.obj
 0001:000143d4       $LN57                      100153d4     libexpat:xmltok.obj
 0001:000143e4       $LN49                      100153e4     libexpat:xmltok.obj
 0001:00014420       _big2_predefinedEntityName 10015420 f   libexpat:xmltok.obj
 0001:00014530       _big2_sameName             10015530 f   libexpat:xmltok.obj
 0001:00014628       $LN55                      10015628     libexpat:xmltok.obj
 0001:00014638       $LN51                      10015638     libexpat:xmltok.obj
 0001:00014660       $LN56                      10015660     libexpat:xmltok.obj
 0001:00014674       $LN52                      10015674     libexpat:xmltok.obj
 0001:00014690       $LN57                      10015690     libexpat:xmltok.obj
 0001:00014698       $LN53                      10015698     libexpat:xmltok.obj
 0001:000146c0       _big2_nameMatchesAscii     100156c0 f   libexpat:xmltok.obj
 0001:00014710       _big2_nameLength           10015710 f   libexpat:xmltok.obj
 0001:00014798       $LN30                      10015798     libexpat:xmltok.obj
 0001:000147a8       $LN27                      100157a8     libexpat:xmltok.obj
 0001:000147d0       $LN31                      100157d0     libexpat:xmltok.obj
 0001:000147e0       $LN28                      100157e0     libexpat:xmltok.obj
 0001:00014800       _big2_skipS                10015800 f   libexpat:xmltok.obj
 0001:00014848       $LN29                      10015848     libexpat:xmltok.obj
 0001:00014850       $LN27                      10015850     libexpat:xmltok.obj
 0001:00014880       _big2_updatePosition       10015880 f   libexpat:xmltok.obj
 0001:00014970       $LN34                      10015970     libexpat:xmltok.obj
 0001:00014980       $LN32                      10015980     libexpat:xmltok.obj
 0001:000149a8       $LN35                      100159a8     libexpat:xmltok.obj
 0001:000149c0       _streqci                   100159c0 f   libexpat:xmltok.obj
 0001:00014a00       _initUpdatePosition        10015a00 f   libexpat:xmltok.obj
 0001:00014a10       _toAscii                   10015a10 f   libexpat:xmltok.obj
 0001:00014a60       _isSpace                   10015a60 f   libexpat:xmltok.obj
 0001:00014a80       $LN8                       10015a80     libexpat:xmltok.obj
 0001:00014a88       $LN6                       10015a88     libexpat:xmltok.obj
 0001:00014aa0       _parsePseudoAttribute      10015aa0 f   libexpat:xmltok.obj
 0001:00014d7c       $LN134                     10015d7c     libexpat:xmltok.obj
 0001:00014d84       $LN121                     10015d84     libexpat:xmltok.obj
 0001:00014d9c       $LN135                     10015d9c     libexpat:xmltok.obj
 0001:00014da4       $LN122                     10015da4     libexpat:xmltok.obj
 0001:00014dbc       $LN136                     10015dbc     libexpat:xmltok.obj
 0001:00014dc4       $LN123                     10015dc4     libexpat:xmltok.obj
 0001:00014ddc       $LN137                     10015ddc     libexpat:xmltok.obj
 0001:00014de4       $LN124                     10015de4     libexpat:xmltok.obj
 0001:00014dfc       $LN138                     10015dfc     libexpat:xmltok.obj
 0001:00014e04       $LN125                     10015e04     libexpat:xmltok.obj
 0001:00014e20       _doParseXmlDecl            10015e20 f   libexpat:xmltok.obj
 0001:00015160       _unknown_isName            10016160 f   libexpat:xmltok.obj
 0001:000151c0       _unknown_isNmstrt          100161c0 f   libexpat:xmltok.obj
 0001:00015220       _unknown_isInvalid         10016220 f   libexpat:xmltok.obj
 0001:00015290       _unknown_toUtf8            10016290 f   libexpat:xmltok.obj
 0001:00015400       _unknown_toUtf16           10016400 f   libexpat:xmltok.obj
 0001:00015700       _getEncodingIndex          10016700 f   libexpat:xmltok.obj
 0001:00015760       _initScan                  10016760 f   libexpat:xmltok.obj
 0001:00015950       _initScanProlog            10016950 f   libexpat:xmltok.obj
 0001:00015970       _initScanContent           10016970 f   libexpat:xmltok.obj
 0001:000159d0       _findEncoding              100169d0 f   libexpat:xmltok.obj
 0001:00015af0       _initScanPrologNS          10016af0 f   libexpat:xmltok.obj
 0001:00015b10       _initScanContentNS         10016b10 f   libexpat:xmltok.obj
 0001:00015b70       _findEncodingNS            10016b70 f   libexpat:xmltok.obj
 0001:00015cc0       _prolog0                   10016cc0 f   libexpat:xmlrole.obj
 0001:00015d88       $LN18                      10016d88     libexpat:xmlrole.obj
 0001:00015da8       $LN16                      10016da8     libexpat:xmlrole.obj
 0001:00015dc0       _prolog1                   10016dc0 f   libexpat:xmlrole.obj
 0001:00015e58       $LN17                      10016e58     libexpat:xmlrole.obj
 0001:00015e70       $LN15                      10016e70     libexpat:xmlrole.obj
 0001:00015e90       _prolog2                   10016e90 f   libexpat:xmlrole.obj
 0001:00015ee8       $LN14                      10016ee8     libexpat:xmlrole.obj
 0001:00015efc       $LN12                      10016efc     libexpat:xmlrole.obj
 0001:00015f10       _doctype0                  10016f10 f   libexpat:xmlrole.obj
 0001:00015f70       _doctype1                  10016f70 f   libexpat:xmlrole.obj
 0001:0001603c       $LN16                      1001703c     libexpat:xmlrole.obj
 0001:00016050       $LN14                      10017050     libexpat:xmlrole.obj
 0001:00016060       _doctype2                  10017060 f   libexpat:xmlrole.obj
 0001:000160b0       _doctype3                  100170b0 f   libexpat:xmlrole.obj
 0001:00016100       _doctype4                  10017100 f   libexpat:xmlrole.obj
 0001:00016160       _doctype5                  10017160 f   libexpat:xmlrole.obj
 0001:000161b0       _internalSubset            100171b0 f   libexpat:xmlrole.obj
 0001:0001630c       $LN21                      1001730c     libexpat:xmlrole.obj
 0001:00016328       $LN19                      10017328     libexpat:xmlrole.obj
 0001:00016350       _externalSubset1           10017350 f   libexpat:xmlrole.obj
 0001:000163b4       $LN37                      100173b4     libexpat:xmlrole.obj
 0001:000163cc       $LN34                      100173cc     libexpat:xmlrole.obj
 0001:00016400       _entity0                   10017400 f   libexpat:xmlrole.obj
 0001:00016460       _entity1                   10017460 f   libexpat:xmlrole.obj
 0001:000164b0       _entity2                   100174b0 f   libexpat:xmlrole.obj
 0001:00016570       _entity3                   10017570 f   libexpat:xmlrole.obj
 0001:000165c0       _entity4                   100175c0 f   libexpat:xmlrole.obj
 0001:00016610       _entity5                   10017610 f   libexpat:xmlrole.obj
 0001:00016690       _entity6                   10017690 f   libexpat:xmlrole.obj
 0001:000166e0       _entity7                   100176e0 f   libexpat:xmlrole.obj
 0001:000167a0       _entity8                   100177a0 f   libexpat:xmlrole.obj
 0001:000167f0       _entity9                   100177f0 f   libexpat:xmlrole.obj
 0001:00016840       _entity10                  10017840 f   libexpat:xmlrole.obj
 0001:00016890       _notation0                 10017890 f   libexpat:xmlrole.obj
 0001:000168e0       _notation1                 100178e0 f   libexpat:xmlrole.obj
 0001:00016980       _notation2                 10017980 f   libexpat:xmlrole.obj
 0001:000169d0       _notation3                 100179d0 f   libexpat:xmlrole.obj
 0001:00016a20       _notation4                 10017a20 f   libexpat:xmlrole.obj
 0001:00016a90       _attlist0                  10017a90 f   libexpat:xmlrole.obj
 0001:00016ae0       _attlist1                  10017ae0 f   libexpat:xmlrole.obj
 0001:00016b4c       $LN13                      10017b4c     libexpat:xmlrole.obj
 0001:00016b5c       $LN11                      10017b5c     libexpat:xmlrole.obj
 0001:00016b80       _attlist2                  10017b80 f   libexpat:xmlrole.obj
 0001:00016c50       _attlist3                  10017c50 f   libexpat:xmlrole.obj
 0001:00016ca0       $LN12                      10017ca0     libexpat:xmlrole.obj
 0001:00016cac       $LN10                      10017cac     libexpat:xmlrole.obj
 0001:00016cd0       _attlist4                  10017cd0 f   libexpat:xmlrole.obj
 0001:00016d30       _attlist5                  10017d30 f   libexpat:xmlrole.obj
 0001:00016d70       _attlist6                  10017d70 f   libexpat:xmlrole.obj
 0001:00016dc0       _attlist7                  10017dc0 f   libexpat:xmlrole.obj
 0001:00016e20       _attlist8                  10017e20 f   libexpat:xmlrole.obj
 0001:00016f10       _attlist9                  10017f10 f   libexpat:xmlrole.obj
 0001:00016f60       _element0                  10017f60 f   libexpat:xmlrole.obj
 0001:00016fb0       _element1                  10017fb0 f   libexpat:xmlrole.obj
 0001:00017080       _element2                  10018080 f   libexpat:xmlrole.obj
 0001:00017158       $LN18                      10018158     libexpat:xmlrole.obj
 0001:00017178       $LN16                      10018178     libexpat:xmlrole.obj
 0001:000171a0       _element3                  100181a0 f   libexpat:xmlrole.obj
 0001:00017220       $LN14                      10018220     libexpat:xmlrole.obj
 0001:00017234       $LN12                      10018234     libexpat:xmlrole.obj
 0001:00017250       _element4                  10018250 f   libexpat:xmlrole.obj
 0001:000172a0       _element5                  100182a0 f   libexpat:xmlrole.obj
 0001:00017300       _element6                  10018300 f   libexpat:xmlrole.obj
 0001:0001738c       $LN16                      1001838c     libexpat:xmlrole.obj
 0001:000173a8       $LN14                      100183a8     libexpat:xmlrole.obj
 0001:000173d0       _element7                  100183d0 f   libexpat:xmlrole.obj
 0001:000174a4       $LN21                      100184a4     libexpat:xmlrole.obj
 0001:000174c4       $LN19                      100184c4     libexpat:xmlrole.obj
 0001:000174e0       _condSect0                 100184e0 f   libexpat:xmlrole.obj
 0001:00017570       _condSect1                 10018570 f   libexpat:xmlrole.obj
 0001:000175b0       _condSect2                 100185b0 f   libexpat:xmlrole.obj
 0001:000175f0       _declClose                 100185f0 f   libexpat:xmlrole.obj
 0001:000178f0       $$000000                   100188f0     LIBCMT:memmove.obj
 0001:00017b40       LeadUpVec                  10018b40     LIBCMT:memmove.obj
 0001:00017bbc       UnwindUpVec                10018bbc     LIBCMT:memmove.obj
 0001:00017c28       TrailUpVec                 10018c28     LIBCMT:memmove.obj
 0001:00017ccc       LeadDownVec                10018ccc     LIBCMT:memmove.obj
 0001:00017d58       UnwindDownVec              10018d58     LIBCMT:memmove.obj
 0001:00017dc4       TrailDownVec               10018dc4     LIBCMT:memmove.obj
 0001:00018686       _swprintf                  10019686 f   LIBCMT:wassert.obj
 0001:00018715       __onexit_nolock            10019715 f   LIBCMT:onexit.obj
 0001:00018b6f       ___DllMainCRTStartup       10019b6f f   LIBCMT:dllcrt0.obj
 0001:000190e0       $$000000                   1001a0e0     LIBCMT:memcpy.obj
 0001:00019330       LeadUpVec                  1001a330     LIBCMT:memcpy.obj
 0001:000193ac       UnwindUpVec                1001a3ac     LIBCMT:memcpy.obj
 0001:00019418       TrailUpVec                 1001a418     LIBCMT:memcpy.obj
 0001:000194bc       LeadDownVec                1001a4bc     LIBCMT:memcpy.obj
 0001:00019548       UnwindDownVec              1001a548     LIBCMT:memcpy.obj
 0001:000195b4       TrailDownVec               1001a5b4     LIBCMT:memcpy.obj
 0001:00019730       $$000000                   1001a730     LIBCMT:strlen.obj
 0001:00019fac       __initterm                 1001afac f   LIBCMT:crt0dat.obj
 0001:0001a016       _doexit                    1001b016 f   LIBCMT:crt0dat.obj
 0001:0001a7d1       _xtow_s@20                 1001b7d1 f   LIBCMT:xtows.obj
 0001:0001a9d0       _flsall                    1001b9d0 f   LIBCMT:fflush.obj
 0001:0001af55       _siglookup                 1001bf55 f   LIBCMT:winsig.obj
 0001:0001b2d0       $$000000                   1001c2d0     LIBCMT:sehprolg4.obj
 0001:0001b4e0       $$000000                   1001c4e0     LIBCMT:sqrt.obj
 0001:0001c03e       ?CPtoLocaleName@@YAPB_WH@Z 1001d03e f   LIBCMT:mbctype.obj
 0001:0001c078       ?getSystemCP@@YAHH@Z       1001d078 f   LIBCMT:mbctype.obj
 0001:0001c0e6       ?setSBCS@@YAXPAUthreadmbcinfostruct@@@Z 1001d0e6 f   LIBCMT:mbctype.obj
 0001:0001c145       ?setSBUpLow@@YAXPAUthreadmbcinfostruct@@@Z 1001d145 f   LIBCMT:mbctype.obj
 0001:0001d13b       _parse_cmdline             1001e13b f   LIBCMT:stdargv.obj
 0001:0001e72e       $LN277                     1001f72e     LIBCMT:output.obj
 0001:0001e74e       _write_char                1001f74e f   LIBCMT:output.obj
 0001:0001e796       _write_multi_char          1001f796 f   LIBCMT:output.obj
 0001:0001e7c2       _write_string              1001f7c2 f   LIBCMT:output.obj
 0001:0001ea10       $$000000                   1001fa10     LIBCMT:lowhelpr.obj
 0001:0001eb30       $$000000                   1001fb30     LIBCMT:strcmp.obj
 0001:0001f04e       __cftoe2_l                 1002004e f   LIBCMT:cvt.obj
 0001:0001f26d       __cftof2_l                 1002026d f   LIBCMT:cvt.obj
 0001:0001f6a3       __shift                    100206a3 f   LIBCMT:cvt.obj
 0001:0001f930       $$000000                   10020930     LIBCMT:memset.obj
 0001:0001f9c0       $$000000                   100209c0     LIBCMT:ulldvrm.obj
 0001:000210a6       $LN267                     100220a6     LIBCMT:woutput.obj
 0001:000210c6       _write_char                100220c6 f   LIBCMT:woutput.obj
 0001:000210fc       _write_multi_char          100220fc f   LIBCMT:woutput.obj
 0001:00021128       _write_string              10022128 f   LIBCMT:woutput.obj
 0001:000213e0       $$000000                   100223e0     LIBCMT:exsup4.obj
 0001:00021470       __unwind_handler4          10022470 f   LIBCMT:exsup4.obj
 0001:000216d0       $$000000                   100226d0     LIBCMT:87disp.obj
 0001:000218a0       $$000000                   100228a0     LIBCMT:genexcep.obj
 0001:00021900       $$000000                   10022900     LIBCMT:common.obj
 0001:00021f6f       ?__crtLCMapStringA_stat@@YAHPAUlocaleinfo_struct@@PB_WKPBDHPADHHH@Z 10022f6f f   LIBCMT:a_map.obj
 0001:000221b9       ?__crtGetStringTypeA_stat@@YAHPAUlocaleinfo_struct@@KPBDHPAGHH@Z 100231b9 f   LIBCMT:a_str.obj
 0001:000223ed       ?x_ismbbtype_l@@YAHPAUlocaleinfo_struct@@IHH@Z 100233ed f   LIBCMT:ismbbyte.obj
 0001:00022930       _copy_environ              10023930 f   LIBCMT:setenv.obj
 0001:00022990       _findenv                   10023990 f   LIBCMT:setenv.obj
 0001:00022ab0       ?__crtCompareStringA_stat@@YAHPAUlocaleinfo_struct@@PB_WKPBDH2HH@Z 10023ab0 f   LIBCMT:a_cmp.obj
 0001:00022d34       ?strncnt@@YAHPBDH@Z        10023d34 f   LIBCMT:a_cmp.obj
 0001:00022da0       $$000000                   10023da0     LIBCMT:exsup.obj
 0001:00022dc0       __unwind_handler           10023dc0 f   LIBCMT:exsup.obj
 0001:00022f60       $$000000                   10023f60     LIBCMT:strrchr.obj
 0001:000233f0       $$000000                   100243f0     LIBCMT:lldvrm.obj
 0001:000234d0       $$000000                   100244d0     LIBCMT:ullshr.obj
 0001:00023a80       $$000000                   10024a80     LIBCMT:chkstk.obj
 0001:00023c80       $$000000                   10024c80     LIBCMT:alloca16.obj
 0001:00025339       $LN333                     10026339     LIBCMT:strgtold.obj
 0001:00025d3d       ___hw_cw_sse2              10026d3d f   LIBCMT:ieee87.obj
 0001:000260e8       __hw_cw                    100270e8 f   LIBCMT:ieee87.obj
 0001:00026320       $$000000                   10027320     LIBCMT:strchr.obj
 0001:00026450       $$000000                   10027450     LIBCMT:_strnicm.obj
 0001:000266a0       $$000000                   100276a0     LIBCMT:llmul.obj
 0002:00000114       _piecewise_construct$initializer$ 10028114     node-expat.obj
 0002:00000118       _allocator_arg$initializer$ 10028118     node-expat.obj
 0002:00000128       _pinit                     10028128     LIBCMT:onexit.obj
 0002:0000012c       _pinit                     1002812c     LIBCMT:_file.obj
 0002:00000130       _pinit                     10028130     LIBCMT:cpu_disp.obj
 0002:00000134       _pinit                     10028134     LIBCMT:mbctype.obj
 0002:00000140       _pterm                     10028140     LIBCMT:wsetloca.obj
 0002:00000144       _pterm                     10028144     LIBCMT:initcon.obj
 0002:00000148       _pterm                     10028148     LIBCMT:_file.obj
 0002:000001b0       __Win_errtab               100281b0     libcpmt:syserror.obj
 0002:00000408       __Sys_errtab               10028408     libcpmt:syserror.obj
 0002:00001190       ?ExceptionTemplate@?1??_CxxThrowException@@9@8@4UEHExceptionRecord@@B 10029190     LIBCMT:throw.obj
 0002:000011dc       _GS_ExceptionPointers      100291dc     LIBCMT:gs_report.obj
 0002:00001210       _rterrs                    10029210     LIBCMT:crt0msg.obj
 0002:00001d28       __mb_locale_names          10029d28     LIBCMT:mbctype.obj
 0002:000020c8       __first_127char            1002a0c8     LIBCMT:wsetloca.obj
 0002:000045d4       One                        1002c5d4     LIBCMT:87disp.obj
 0002:000045dc       XAMtoTagTab                1002c5dc     LIBCMT:87disp.obj
 0002:000045f0       One                        1002c5f0     LIBCMT:common.obj
 0002:00004604       DblMax                     1002c604     LIBCMT:common.obj
 0002:0000460c       DblMin                     1002c60c     LIBCMT:common.obj
 0002:00004614       IeeeAdjO                   1002c614     LIBCMT:common.obj
 0002:0000461c       IeeeAdjU                   1002c61c     LIBCMT:common.obj
 0002:00004624       _infinity                  1002c624     LIBCMT:common.obj
 0002:0000462c       _zero                      1002c62c     LIBCMT:common.obj
 0002:00004ea8       _tokenTable                1002cea8     LIBCMT:undname.obj
 0002:00004ee0       _nameTable                 1002cee0     LIBCMT:undname.obj
 0002:00005020       _rttiTable                 1002d020     LIBCMT:undname.obj
 0002:000061f0       ?enumValueStart@?1??doProlog@@9@9 1002e1f0     libexpat:xmlparse.obj
 0002:000061f4       ?atypeCDATA@?1??doProlog@@9@9 1002e1f4     libexpat:xmlparse.obj
 0002:000061fc       ?atypeIDREFS@?1??doProlog@@9@9 1002e1fc     libexpat:xmlparse.obj
 0002:00006204       ?atypeENTITIES@?1??doProlog@@9@9 1002e204     libexpat:xmlparse.obj
 0002:00006210       ?atypeIDREF@?1??doProlog@@9@9 1002e210     libexpat:xmlparse.obj
 0002:00006218       ?atypeNMTOKEN@?1??doProlog@@9@9 1002e218     libexpat:xmlparse.obj
 0002:00006220       ?xmlnsNamespace@?1??addBinding@@9@9 1002e220     libexpat:xmlparse.obj
 0002:00006240       ?atypeID@?1??doProlog@@9@9 1002e240     libexpat:xmlparse.obj
 0002:00006244       ?notationPrefix@?1??doProlog@@9@9 1002e244     libexpat:xmlparse.obj
 0002:00006250       ?atypeNMTOKENS@?1??doProlog@@9@9 1002e250     libexpat:xmlparse.obj
 0002:0000625c       ?atypeENTITY@?1??doProlog@@9@9 1002e25c     libexpat:xmlparse.obj
 0002:00006264       ?externalSubsetName@?1??doProlog@@9@9 1002e264     libexpat:xmlparse.obj
 0002:00006268       ?xmlLen@?1??addBinding@@9@9 1002e268     libexpat:xmlparse.obj
 0002:0000626c       ?enumValueSep@?1??doProlog@@9@9 1002e26c     libexpat:xmlparse.obj
 0002:00006270       ?xmlNamespace@?1??addBinding@@9@9 1002e270     libexpat:xmlparse.obj
 0002:00006298       ?features@?1??XML_GetFeatureList@@9@9 1002e298     libexpat:xmlparse.obj
 0002:000062e0       ?vectors@?1??sip24_valid@@9@9 1002e2e0     libexpat:xmlparse.obj
 0002:000064e0       ?message@?1??XML_ErrorString@@9@9 1002e4e0     libexpat:xmlparse.obj
 0002:00006584       ?xmlnsLen@?1??addBinding@@9@9 1002e584     libexpat:xmlparse.obj
 0002:00006588       _KW_yes                    1002e588     libexpat:xmltok.obj
 0002:00006590       _implicitContext           1002e590     libexpat:xmlparse.obj
 0002:000065bc       ?CDATA_LSQB@?1??normal_scanCdataSection@@9@9 1002e5bc     libexpat:xmltok.obj
 0002:000065c4       _KW_US_ASCII               1002e5c4     libexpat:xmltok.obj
 0002:000065d0       _utf8_encoding             1002e5d0     libexpat:xmltok.obj
 0002:00006740       _ascii_encoding_ns         1002e740     libexpat:xmltok.obj
 0002:000068b0       _namePages                 1002e8b0     libexpat:xmltok.obj
 0002:000069b0       _internal_little2_encoding_ns 1002e9b0     libexpat:xmltok.obj
 0002:00006b20       _little2_encoding          1002eb20     libexpat:xmltok.obj
 0002:00006c90       ?encodingNames@?1??getEncodingIndex@@9@9 1002ec90     libexpat:xmltok.obj
 0002:00006ca8       _KW_UTF_8                  1002eca8     libexpat:xmltok.obj
 0002:00006cb0       _KW_no                     1002ecb0     libexpat:xmltok.obj
 0002:00006cb4       _KW_encoding               1002ecb4     libexpat:xmltok.obj
 0002:00006cc0       _KW_UTF_16                 1002ecc0     libexpat:xmltok.obj
 0002:00006cc8       _big2_encoding_ns          1002ecc8     libexpat:xmltok.obj
 0002:00006e38       ?CDATA_LSQB@?1??little2_scanCdataSection@@9@9 1002ee38     libexpat:xmltok.obj
 0002:00006e40       _nmstrtPages               1002ee40     libexpat:xmltok.obj
 0002:00006f40       _namingBitmap              1002ef40     libexpat:xmltok.obj
 0002:00007440       _big2_encoding             1002f440     libexpat:xmltok.obj
 0002:000075b0       _utf8_encoding_ns          1002f5b0     libexpat:xmltok.obj
 0002:00007720       _latin1_encoding_ns        1002f720     libexpat:xmltok.obj
 0002:00007890       _KW_ISO_8859_1             1002f890     libexpat:xmltok.obj
 0002:0000789c       _KW_UTF_16BE               1002f89c     libexpat:xmltok.obj
 0002:000078a8       _little2_encoding_ns       1002f8a8     libexpat:xmltok.obj
 0002:00007a18       _KW_version                1002fa18     libexpat:xmltok.obj
 0002:00007a20       _latin1_encoding           1002fa20     libexpat:xmltok.obj
 0002:00007b90       _internal_utf8_encoding_ns 1002fb90     libexpat:xmltok.obj
 0002:00007d00       _KW_standalone             1002fd00     libexpat:xmltok.obj
 0002:00007d0c       _encodingsNS               1002fd0c     libexpat:xmltok.obj
 0002:00007d28       _internal_utf8_encoding    1002fd28     libexpat:xmltok.obj
 0002:00007e98       _internal_little2_encoding 1002fe98     libexpat:xmltok.obj
 0002:00008008       _KW_UTF_16LE               10030008     libexpat:xmltok.obj
 0002:00008014       _encodings                 10030014     libexpat:xmltok.obj
 0002:00008030       _ascii_encoding            10030030     libexpat:xmltok.obj
 0002:000081a0       ?CDATA_LSQB@?1??big2_scanCdataSection@@9@9 100301a0     libexpat:xmltok.obj
 0002:000081a8       _KW_REQUIRED               100301a8     libexpat:xmlrole.obj
 0002:000081b4       _KW_IMPLIED                100301b4     libexpat:xmlrole.obj
 0002:000081c0       ?types@?3??attlist2@@9@9   100301c0     libexpat:xmlrole.obj
 0002:000081e0       _KW_ENTITY                 100301e0     libexpat:xmlrole.obj
 0002:000081e8       _KW_NMTOKEN                100301e8     libexpat:xmlrole.obj
 0002:000081f0       _KW_ANY                    100301f0     libexpat:xmlrole.obj
 0002:000081f4       _KW_ATTLIST                100301f4     libexpat:xmlrole.obj
 0002:000081fc       _KW_NMTOKENS               100301fc     libexpat:xmlrole.obj
 0002:00008208       _KW_NDATA                  10030208     libexpat:xmlrole.obj
 0002:00008210       _KW_SYSTEM                 10030210     libexpat:xmlrole.obj
 0002:00008218       _KW_PUBLIC                 10030218     libexpat:xmlrole.obj
 0002:00008220       _KW_FIXED                  10030220     libexpat:xmlrole.obj
 0002:00008228       _KW_IDREF                  10030228     libexpat:xmlrole.obj
 0002:00008230       _KW_INCLUDE                10030230     libexpat:xmlrole.obj
 0002:00008238       _KW_IGNORE                 10030238     libexpat:xmlrole.obj
 0002:00008240       _KW_EMPTY                  10030240     libexpat:xmlrole.obj
 0002:00008248       _KW_ID                     10030248     libexpat:xmlrole.obj
 0002:0000824c       _KW_NOTATION               1003024c     libexpat:xmlrole.obj
 0002:00008258       _KW_IDREFS                 10030258     libexpat:xmlrole.obj
 0002:00008260       _KW_ELEMENT                10030260     libexpat:xmlrole.obj
 0002:00008268       _KW_CDATA                  10030268     libexpat:xmlrole.obj
 0002:00008270       _KW_ENTITIES               10030270     libexpat:xmlrole.obj
 0002:0000827c       _KW_PCDATA                 1003027c     libexpat:xmlrole.obj
 0002:00008284       _KW_DOCTYPE                10030284     libexpat:xmlrole.obj
 0002:000084a8       __sehtable$__onexit        100304a8     LIBCMT:onexit.obj
 0002:000084c8       __sehtable$__CRT_INIT@12   100304c8     LIBCMT:dllcrt0.obj
 0002:000084e8       __sehtable$___DllMainCRTStartup 100304e8     LIBCMT:dllcrt0.obj
 0002:00008508       __sehtable$_fprintf        10030508     LIBCMT:fprintf.obj
 0002:00008528       __sehtable$_getenv         10030528     LIBCMT:getenv.obj
 0002:00008548       __sehtable$_doexit         10030548     LIBCMT:crt0dat.obj
 0002:00008568       __sehtable$_fflush         10030568     LIBCMT:fflush.obj
 0002:00008588       __sehtable$_flsall         10030588     LIBCMT:fflush.obj
 0002:000085b0       __sehtable$_setvbuf        100305b0     LIBCMT:setvbuf.obj
 0002:000085d0       __sehtable$_fwprintf       100305d0     LIBCMT:fwprintf.obj
 0002:000085f0       __sehtable$_raise          100305f0     LIBCMT:winsig.obj
 0002:00008610       __sehtable$___set_fpsr_sse2 10030610     LIBCMT:fpctrl.obj
 0002:00008630       __sehtable$___updatetlocinfo 10030630     LIBCMT:localref.obj
 0002:00008650       __sehtable$___updatetmbcinfo 10030650     LIBCMT:mbctype.obj
 0002:00008670       __sehtable$__setmbcp       10030670     LIBCMT:mbctype.obj
 0002:00008690       __sehtable$__freefls@4     10030690     LIBCMT:tidtable.obj
 0002:000086b8       __sehtable$__initptd       100306b8     LIBCMT:tidtable.obj
 0002:000086e0       __sehtable$__locterm       100306e0     LIBCMT:wsetloca.obj
 0002:00008700       __sehtable$__ioinit        10030700     LIBCMT:ioinit.obj
 0002:00008720       __sehtable$__fcloseall     10030720     LIBCMT:closeall.obj
 0002:00008740       __sehtable$__mtinitlocknum 10030740     LIBCMT:mlock.obj
 0002:00008760       __sehtable$?terminate@@YAXXZ 10030760     LIBCMT:hooks.obj
 0002:00008780       __sehtable$___DestructExceptionObject 10030780     LIBCMT:frame.obj
 0002:000087a0       __sehtable$?_Type_info_dtor@type_info@@CAXPAV1@@Z 100307a0     LIBCMT:typname.obj
 0002:000087c0       __sehtable$__IsNonwritableInCurrentImage 100307c0     LIBCMT:pesect.obj
 0002:000087e0       __sehtable$__commit        100307e0     LIBCMT:commit.obj
 0002:00008800       __sehtable$__write         10030800     LIBCMT:write.obj
 0002:00008820       __sehtable$_fclose         10030820     LIBCMT:fclose.obj
 0002:00008840       __sehtable$___lock_fhandle 10030840     LIBCMT:osfinfo.obj
 0002:00008860       __sehtable$__lseeki64      10030860     LIBCMT:lseeki64.obj
 0002:00008880       __sehtable$__close         10030880     LIBCMT:close.obj
 0002:00009880       .edata                     10031880     node_expat.exp
 0002:000098a8       rgpv                       100318a8     node_expat.exp
 0002:000098ac       rgszName                   100318ac     node_expat.exp
 0002:000098b0       rgwOrd                     100318b0     node_expat.exp
 0002:000098b2       szName                     100318b2     node_expat.exp
 0002:000098c2       $N00001                    100318c2     node_expat.exp
 0002:00009a24       .idata$6                   10031a24     kernel32:KERNEL32.dll
 0003:00000000       __assertstring             10032000     LIBCMT:wassert.obj
 0003:00000050       _dotdotdot                 10032050     LIBCMT:wassert.obj
 0003:00000054       _newline                   10032054     LIBCMT:wassert.obj
 0003:00000058       _dblnewline                10032058     LIBCMT:wassert.obj
 0003:000002f8       _errtable                  100322f8     LIBCMT:dosmap.obj
 0003:00000460       _ErrnoNoMem                10032460     LIBCMT:dosmap.obj
 0003:00000464       _DoserrorNoMem             10032464     LIBCMT:dosmap.obj
 0003:00000470       _NAME_                     10032470     LIBCMT:sqrt.obj
 0003:000004a0       ?_names@?1??_get_fname@@9@9 100324a0     LIBCMT:fpexcept.obj
 0003:00000588       _over                      10032588     LIBCMT:fpctrl.obj
 0003:00000594       _under                     10032594     LIBCMT:fpctrl.obj
 0003:000005a0       ?__DAZ_ENABLED@?1??__set_fpsr_sse2@@9@9 100325a0     LIBCMT:fpctrl.obj
 0003:000009d0       ___rgctypeflag             100329d0     LIBCMT:mbctype.obj
 0003:000009d8       ___rgcode_page_info        100329d8     LIBCMT:mbctype.obj
 0003:00000cfc       __ctype_loc_style          10032cfc     LIBCMT:wsetloca.obj
 0003:00000d40       ?isPackaged@?1??__crtIsPackagedApp@@9@9 10032d40     LIBCMT:winapisupp.obj
 0003:00000d48       __locktable                10032d48     LIBCMT:mlock.obj
 0003:00000f20       _DoubleFormat              10032f20     LIBCMT:intrncvt.obj
 0003:00000f38       _FloatFormat               10032f38     LIBCMT:intrncvt.obj
 0003:00001228       __module                   10033228     node-expat.obj
 0003:000013a4       _allocator_arg             100333a4     libcpmt:syserror.obj
 0003:000013a5       _piecewise_construct       100333a5     libcpmt:syserror.obj
 0003:000013a6       __Tuple_alloc              100333a6     libcpmt:xthrow.obj
 0003:000013a7       _ignore                    100333a7     libcpmt:xthrow.obj
 0003:000013a8       _allocator_arg             100333a8     libcpmt:xthrow.obj
 0003:000013a9       _piecewise_construct       100333a9     libcpmt:xthrow.obj
 0003:000013ac       ___proc_attached           100333ac     LIBCMT:dllcrt0.obj
 0003:000013c0       _GS_ExceptionRecord        100333c0     LIBCMT:gs_report.obj
 0003:00001410       _GS_ContextRecord          10033410     LIBCMT:gs_report.obj
 0003:000016dc       _DebuggerWasPresent        100336dc     LIBCMT:gs_report.obj
 0003:00001730       ?outmsg@?9??_NMSG_WRITE@@9@9 10033730     LIBCMT:crt0msg.obj
 0003:00001d64       _ctrlc_action              10033d64     LIBCMT:winsig.obj
 0003:00001d68       _ctrlbreak_action          10033d68     LIBCMT:winsig.obj
 0003:00001d6c       _abort_action              10033d6c     LIBCMT:winsig.obj
 0003:00001d70       _term_action               10033d70     LIBCMT:winsig.obj
 0003:00001d74       _ConsoleCtrlHandler_Installed 10033d74     LIBCMT:winsig.obj
 0003:00001d78       ?pfnMessageBox@?1??__crtMessageBoxW@@9@9 10033d78     LIBCMT:crtmboxw.obj
 0003:00001d7c       ?pfnGetActiveWindow@?1??__crtMessageBoxW@@9@9 10033d7c     LIBCMT:crtmboxw.obj
 0003:00001d80       ?pfnGetLastActivePopup@?1??__crtMessageBoxW@@9@9 10033d80     LIBCMT:crtmboxw.obj
 0003:00001d84       ?pfnGetProcessWindowStation@?1??__crtMessageBoxW@@9@9 10033d84     LIBCMT:crtmboxw.obj
 0003:00001d88       ?pfnGetUserObjectInformation@?1??__crtMessageBoxW@@9@9 10033d88     LIBCMT:crtmboxw.obj
 0003:00001dac       _fSystemSet                10033dac     LIBCMT:mbctype.obj
 0003:00001eb8       ?_pgmname@?1??_setargv@@9@9 10033eb8     LIBCMT:stdargv.obj
 0003:00001fc0       _lclcritsects              10033fc0     LIBCMT:mlock.obj
 0003:00002120       ___type_info_root_node     10034120     LIBCMT:typname.obj
 0003:00002128       _g_pfnRtlGenRandom         10034128     LIBCMT:rand_s.obj
 0003:0000212c       ___crtCallProc             1003412c     LIBCMT:winapinls.obj
 0003:00002138       ___enable_percent_n        10034138     LIBCMT:printf.obj
 0003:00002164       _heap                      10034164     LIBCMT:undname.obj
 0003:00002198       _allocator_arg             10034198     node-expat.obj
 0003:00002199       _piecewise_construct       10034199     node-expat.obj
 0004:00000060       $R000000                   10036060     * linker generated manifest res *

 Exports

  ordinal    name

        1    __register_node_expat_
               exported name: _register_node_expat_
